
build/bin/asm_saxpy_32.exe:     format de fichier elf32-i386


Déassemblage de la section .init :

00002000 <_init>:
    2000:	53                   	push   %ebx
    2001:	83 ec 08             	sub    $0x8,%esp
    2004:	e8 27 18 00 00       	call   3830 <__x86.get_pc_thunk.bx>
    2009:	81 c3 b3 ce 00 00    	add    $0xceb3,%ebx
    200f:	8b 83 34 01 00 00    	mov    0x134(%ebx),%eax
    2015:	85 c0                	test   %eax,%eax
    2017:	74 02                	je     201b <_init+0x1b>
    2019:	ff d0                	call   *%eax
    201b:	83 c4 08             	add    $0x8,%esp
    201e:	5b                   	pop    %ebx
    201f:	c3                   	ret

Déassemblage de la section .plt :

00002020 <__printf_chk@plt-0x10>:
    2020:	ff b3 04 00 00 00    	push   0x4(%ebx)
    2026:	ff a3 08 00 00 00    	jmp    *0x8(%ebx)
    202c:	00 00                	add    %al,(%eax)
	...

00002030 <__printf_chk@plt>:
    2030:	ff a3 0c 00 00 00    	jmp    *0xc(%ebx)
    2036:	68 00 00 00 00       	push   $0x0
    203b:	e9 e0 ff ff ff       	jmp    2020 <_init+0x20>

00002040 <_ZNSo3putEc@plt>:
    2040:	ff a3 10 00 00 00    	jmp    *0x10(%ebx)
    2046:	68 08 00 00 00       	push   $0x8
    204b:	e9 d0 ff ff ff       	jmp    2020 <_init+0x20>

00002050 <_Znwj@plt>:
    2050:	ff a3 14 00 00 00    	jmp    *0x14(%ebx)
    2056:	68 10 00 00 00       	push   $0x10
    205b:	e9 c0 ff ff ff       	jmp    2020 <_init+0x20>

00002060 <_ZNSt7__cxx1115basic_stringbufIcSt11char_traitsIcESaIcEE7_M_syncEPcjj@plt>:
    2060:	ff a3 18 00 00 00    	jmp    *0x18(%ebx)
    2066:	68 18 00 00 00       	push   $0x18
    206b:	e9 b0 ff ff ff       	jmp    2020 <_init+0x20>

00002070 <_ZSt29_Rb_tree_insert_and_rebalancebPSt18_Rb_tree_node_baseS0_RS_@plt>:
    2070:	ff a3 1c 00 00 00    	jmp    *0x1c(%ebx)
    2076:	68 20 00 00 00       	push   $0x20
    207b:	e9 a0 ff ff ff       	jmp    2020 <_init+0x20>

00002080 <sigaction@plt>:
    2080:	ff a3 20 00 00 00    	jmp    *0x20(%ebx)
    2086:	68 28 00 00 00       	push   $0x28
    208b:	e9 90 ff ff ff       	jmp    2020 <_init+0x20>

00002090 <_ZNSt8ios_baseC2Ev@plt>:
    2090:	ff a3 24 00 00 00    	jmp    *0x24(%ebx)
    2096:	68 30 00 00 00       	push   $0x30
    209b:	e9 80 ff ff ff       	jmp    2020 <_init+0x20>

000020a0 <_ZNSt8ios_baseD2Ev@plt>:
    20a0:	ff a3 28 00 00 00    	jmp    *0x28(%ebx)
    20a6:	68 38 00 00 00       	push   $0x38
    20ab:	e9 70 ff ff ff       	jmp    2020 <_init+0x20>

000020b0 <_ZNKSt7__cxx1112basic_stringIcSt11char_traitsIcESaIcEE6substrEjj@plt>:
    20b0:	ff a3 2c 00 00 00    	jmp    *0x2c(%ebx)
    20b6:	68 40 00 00 00       	push   $0x40
    20bb:	e9 60 ff ff ff       	jmp    2020 <_init+0x20>

000020c0 <getopt_long@plt>:
    20c0:	ff a3 30 00 00 00    	jmp    *0x30(%ebx)
    20c6:	68 48 00 00 00       	push   $0x48
    20cb:	e9 50 ff ff ff       	jmp    2020 <_init+0x20>

000020d0 <_ZNSo9_M_insertIxEERSoT_@plt>:
    20d0:	ff a3 34 00 00 00    	jmp    *0x34(%ebx)
    20d6:	68 50 00 00 00       	push   $0x50
    20db:	e9 40 ff ff ff       	jmp    2020 <_init+0x20>

000020e0 <_ZNSt7__cxx1112basic_stringIcSt11char_traitsIcESaIcEE10_M_replaceEjjPKcj@plt>:
    20e0:	ff a3 38 00 00 00    	jmp    *0x38(%ebx)
    20e6:	68 58 00 00 00       	push   $0x58
    20eb:	e9 30 ff ff ff       	jmp    2020 <_init+0x20>

000020f0 <__cxa_begin_catch@plt>:
    20f0:	ff a3 3c 00 00 00    	jmp    *0x3c(%ebx)
    20f6:	68 60 00 00 00       	push   $0x60
    20fb:	e9 20 ff ff ff       	jmp    2020 <_init+0x20>

00002100 <_ZNSt7__cxx1119basic_istringstreamIcSt11char_traitsIcESaIcEED1Ev@plt>:
    2100:	ff a3 40 00 00 00    	jmp    *0x40(%ebx)
    2106:	68 68 00 00 00       	push   $0x68
    210b:	e9 10 ff ff ff       	jmp    2020 <_init+0x20>

00002110 <_ZSt4endlIcSt11char_traitsIcEERSt13basic_ostreamIT_T0_ES6_@plt>:
    2110:	ff a3 44 00 00 00    	jmp    *0x44(%ebx)
    2116:	68 70 00 00 00       	push   $0x70
    211b:	e9 00 ff ff ff       	jmp    2020 <_init+0x20>

00002120 <__cxa_allocate_exception@plt>:
    2120:	ff a3 48 00 00 00    	jmp    *0x48(%ebx)
    2126:	68 78 00 00 00       	push   $0x78
    212b:	e9 f0 fe ff ff       	jmp    2020 <_init+0x20>

00002130 <memcpy@plt>:
    2130:	ff a3 4c 00 00 00    	jmp    *0x4c(%ebx)
    2136:	68 80 00 00 00       	push   $0x80
    213b:	e9 e0 fe ff ff       	jmp    2020 <_init+0x20>

00002140 <_ZSt20__throw_length_errorPKc@plt>:
    2140:	ff a3 50 00 00 00    	jmp    *0x50(%ebx)
    2146:	68 88 00 00 00       	push   $0x88
    214b:	e9 d0 fe ff ff       	jmp    2020 <_init+0x20>

00002150 <strlen@plt>:
    2150:	ff a3 54 00 00 00    	jmp    *0x54(%ebx)
    2156:	68 90 00 00 00       	push   $0x90
    215b:	e9 c0 fe ff ff       	jmp    2020 <_init+0x20>

00002160 <_ZSt24__throw_invalid_argumentPKc@plt>:
    2160:	ff a3 58 00 00 00    	jmp    *0x58(%ebx)
    2166:	68 98 00 00 00       	push   $0x98
    216b:	e9 b0 fe ff ff       	jmp    2020 <_init+0x20>

00002170 <_ZNSo9_M_insertIyEERSoT_@plt>:
    2170:	ff a3 5c 00 00 00    	jmp    *0x5c(%ebx)
    2176:	68 a0 00 00 00       	push   $0xa0
    217b:	e9 a0 fe ff ff       	jmp    2020 <_init+0x20>

00002180 <_ZNSo9_M_insertImEERSoT_@plt>:
    2180:	ff a3 60 00 00 00    	jmp    *0x60(%ebx)
    2186:	68 a8 00 00 00       	push   $0xa8
    218b:	e9 90 fe ff ff       	jmp    2020 <_init+0x20>

00002190 <_ZNSo5flushEv@plt>:
    2190:	ff a3 64 00 00 00    	jmp    *0x64(%ebx)
    2196:	68 b0 00 00 00       	push   $0xb0
    219b:	e9 80 fe ff ff       	jmp    2020 <_init+0x20>

000021a0 <__cxa_atexit@plt>:
    21a0:	ff a3 68 00 00 00    	jmp    *0x68(%ebx)
    21a6:	68 b8 00 00 00       	push   $0xb8
    21ab:	e9 70 fe ff ff       	jmp    2020 <_init+0x20>

000021b0 <_ZSt19__throw_logic_errorPKc@plt>:
    21b0:	ff a3 6c 00 00 00    	jmp    *0x6c(%ebx)
    21b6:	68 c0 00 00 00       	push   $0xc0
    21bb:	e9 60 fe ff ff       	jmp    2020 <_init+0x20>

000021c0 <__cxa_free_exception@plt>:
    21c0:	ff a3 70 00 00 00    	jmp    *0x70(%ebx)
    21c6:	68 c8 00 00 00       	push   $0xc8
    21cb:	e9 50 fe ff ff       	jmp    2020 <_init+0x20>

000021d0 <_ZNKSt7__cxx1112basic_stringIcSt11char_traitsIcESaIcEE12find_last_ofEPKcjj@plt>:
    21d0:	ff a3 74 00 00 00    	jmp    *0x74(%ebx)
    21d6:	68 d0 00 00 00       	push   $0xd0
    21db:	e9 40 fe ff ff       	jmp    2020 <_init+0x20>

000021e0 <__libc_start_main@plt>:
    21e0:	ff a3 78 00 00 00    	jmp    *0x78(%ebx)
    21e6:	68 d8 00 00 00       	push   $0xd8
    21eb:	e9 30 fe ff ff       	jmp    2020 <_init+0x20>

000021f0 <posix_memalign@plt>:
    21f0:	ff a3 7c 00 00 00    	jmp    *0x7c(%ebx)
    21f6:	68 e0 00 00 00       	push   $0xe0
    21fb:	e9 20 fe ff ff       	jmp    2020 <_init+0x20>

00002200 <_ZNSo9_M_insertIPKvEERSoT_@plt>:
    2200:	ff a3 80 00 00 00    	jmp    *0x80(%ebx)
    2206:	68 e8 00 00 00       	push   $0xe8
    220b:	e9 10 fe ff ff       	jmp    2020 <_init+0x20>

00002210 <__errno_location@plt>:
    2210:	ff a3 84 00 00 00    	jmp    *0x84(%ebx)
    2216:	68 f0 00 00 00       	push   $0xf0
    221b:	e9 00 fe ff ff       	jmp    2020 <_init+0x20>

00002220 <memcmp@plt>:
    2220:	ff a3 88 00 00 00    	jmp    *0x88(%ebx)
    2226:	68 f8 00 00 00       	push   $0xf8
    222b:	e9 f0 fd ff ff       	jmp    2020 <_init+0x20>

00002230 <sigemptyset@plt>:
    2230:	ff a3 8c 00 00 00    	jmp    *0x8c(%ebx)
    2236:	68 00 01 00 00       	push   $0x100
    223b:	e9 e0 fd ff ff       	jmp    2020 <_init+0x20>

00002240 <_ZNSolsEs@plt>:
    2240:	ff a3 90 00 00 00    	jmp    *0x90(%ebx)
    2246:	68 08 01 00 00       	push   $0x108
    224b:	e9 d0 fd ff ff       	jmp    2020 <_init+0x20>

00002250 <_ZdlPv@plt>:
    2250:	ff a3 94 00 00 00    	jmp    *0x94(%ebx)
    2256:	68 10 01 00 00       	push   $0x110
    225b:	e9 c0 fd ff ff       	jmp    2020 <_init+0x20>

00002260 <_ZStlsISt11char_traitsIcEERSt13basic_ostreamIcT_ES5_PKc@plt>:
    2260:	ff a3 98 00 00 00    	jmp    *0x98(%ebx)
    2266:	68 18 01 00 00       	push   $0x118
    226b:	e9 b0 fd ff ff       	jmp    2020 <_init+0x20>

00002270 <_ZNSt7__cxx1112basic_stringIcSt11char_traitsIcESaIcEE12_M_constructEjc@plt>:
    2270:	ff a3 9c 00 00 00    	jmp    *0x9c(%ebx)
    2276:	68 20 01 00 00       	push   $0x120
    227b:	e9 a0 fd ff ff       	jmp    2020 <_init+0x20>

00002280 <_ZSt18_Rb_tree_decrementPSt18_Rb_tree_node_base@plt>:
    2280:	ff a3 a0 00 00 00    	jmp    *0xa0(%ebx)
    2286:	68 28 01 00 00       	push   $0x128
    228b:	e9 90 fd ff ff       	jmp    2020 <_init+0x20>

00002290 <__stack_chk_fail@plt>:
    2290:	ff a3 a4 00 00 00    	jmp    *0xa4(%ebx)
    2296:	68 30 01 00 00       	push   $0x130
    229b:	e9 80 fd ff ff       	jmp    2020 <_init+0x20>

000022a0 <_ZNKSt5ctypeIcE13_M_widen_initEv@plt>:
    22a0:	ff a3 a8 00 00 00    	jmp    *0xa8(%ebx)
    22a6:	68 38 01 00 00       	push   $0x138
    22ab:	e9 70 fd ff ff       	jmp    2020 <_init+0x20>

000022b0 <_ZNSt7__cxx1112basic_stringIcSt11char_traitsIcESaIcEE10_M_disposeEv@plt>:
    22b0:	ff a3 ac 00 00 00    	jmp    *0xac(%ebx)
    22b6:	68 40 01 00 00       	push   $0x140
    22bb:	e9 60 fd ff ff       	jmp    2020 <_init+0x20>

000022c0 <free@plt>:
    22c0:	ff a3 b0 00 00 00    	jmp    *0xb0(%ebx)
    22c6:	68 48 01 00 00       	push   $0x148
    22cb:	e9 50 fd ff ff       	jmp    2020 <_init+0x20>

000022d0 <_ZSt16__throw_bad_castv@plt>:
    22d0:	ff a3 b4 00 00 00    	jmp    *0xb4(%ebx)
    22d6:	68 50 01 00 00       	push   $0x150
    22db:	e9 40 fd ff ff       	jmp    2020 <_init+0x20>

000022e0 <_ZSt16__ostream_insertIcSt11char_traitsIcEERSt13basic_ostreamIT_T0_ES6_PKS3_i@plt>:
    22e0:	ff a3 b8 00 00 00    	jmp    *0xb8(%ebx)
    22e6:	68 58 01 00 00       	push   $0x158
    22eb:	e9 30 fd ff ff       	jmp    2020 <_init+0x20>

000022f0 <_ZNSt9basic_iosIcSt11char_traitsIcEE4initEPSt15basic_streambufIcS1_E@plt>:
    22f0:	ff a3 bc 00 00 00    	jmp    *0xbc(%ebx)
    22f6:	68 60 01 00 00       	push   $0x160
    22fb:	e9 20 fd ff ff       	jmp    2020 <_init+0x20>

00002300 <feenableexcept@plt>:
    2300:	ff a3 c0 00 00 00    	jmp    *0xc0(%ebx)
    2306:	68 68 01 00 00       	push   $0x168
    230b:	e9 10 fd ff ff       	jmp    2020 <_init+0x20>

00002310 <_ZNSt6localeD1Ev@plt>:
    2310:	ff a3 c4 00 00 00    	jmp    *0xc4(%ebx)
    2316:	68 70 01 00 00       	push   $0x170
    231b:	e9 00 fd ff ff       	jmp    2020 <_init+0x20>

00002320 <_ZNSt11logic_errorC1EPKc@plt>:
    2320:	ff a3 c8 00 00 00    	jmp    *0xc8(%ebx)
    2326:	68 78 01 00 00       	push   $0x178
    232b:	e9 f0 fc ff ff       	jmp    2020 <_init+0x20>

00002330 <exit@plt>:
    2330:	ff a3 cc 00 00 00    	jmp    *0xcc(%ebx)
    2336:	68 80 01 00 00       	push   $0x180
    233b:	e9 e0 fc ff ff       	jmp    2020 <_init+0x20>

00002340 <_ZSt20__throw_out_of_rangePKc@plt>:
    2340:	ff a3 d0 00 00 00    	jmp    *0xd0(%ebx)
    2346:	68 88 01 00 00       	push   $0x188
    234b:	e9 d0 fc ff ff       	jmp    2020 <_init+0x20>

00002350 <__cxa_rethrow@plt>:
    2350:	ff a3 d4 00 00 00    	jmp    *0xd4(%ebx)
    2356:	68 90 01 00 00       	push   $0x190
    235b:	e9 c0 fc ff ff       	jmp    2020 <_init+0x20>

00002360 <_ZNSo9_M_insertIdEERSoT_@plt>:
    2360:	ff a3 d8 00 00 00    	jmp    *0xd8(%ebx)
    2366:	68 98 01 00 00       	push   $0x198
    236b:	e9 b0 fc ff ff       	jmp    2020 <_init+0x20>

00002370 <__cxa_end_catch@plt>:
    2370:	ff a3 dc 00 00 00    	jmp    *0xdc(%ebx)
    2376:	68 a0 01 00 00       	push   $0x1a0
    237b:	e9 a0 fc ff ff       	jmp    2020 <_init+0x20>

00002380 <err@plt>:
    2380:	ff a3 e0 00 00 00    	jmp    *0xe0(%ebx)
    2386:	68 a8 01 00 00       	push   $0x1a8
    238b:	e9 90 fc ff ff       	jmp    2020 <_init+0x20>

00002390 <_ZNSt9basic_iosIcSt11char_traitsIcEE5clearESt12_Ios_Iostate@plt>:
    2390:	ff a3 e4 00 00 00    	jmp    *0xe4(%ebx)
    2396:	68 b0 01 00 00       	push   $0x1b0
    239b:	e9 80 fc ff ff       	jmp    2020 <_init+0x20>

000023a0 <__cxa_throw@plt>:
    23a0:	ff a3 e8 00 00 00    	jmp    *0xe8(%ebx)
    23a6:	68 b8 01 00 00       	push   $0x1b8
    23ab:	e9 70 fc ff ff       	jmp    2020 <_init+0x20>

000023b0 <_ZNSt7__cxx1112basic_stringIcSt11char_traitsIcESaIcEE9_M_createERjj@plt>:
    23b0:	ff a3 ec 00 00 00    	jmp    *0xec(%ebx)
    23b6:	68 c0 01 00 00       	push   $0x1c0
    23bb:	e9 60 fc ff ff       	jmp    2020 <_init+0x20>

000023c0 <_ZNSolsEi@plt>:
    23c0:	ff a3 f0 00 00 00    	jmp    *0xf0(%ebx)
    23c6:	68 c8 01 00 00       	push   $0x1c8
    23cb:	e9 50 fc ff ff       	jmp    2020 <_init+0x20>

000023d0 <_Unwind_Resume@plt>:
    23d0:	ff a3 f4 00 00 00    	jmp    *0xf4(%ebx)
    23d6:	68 d0 01 00 00       	push   $0x1d0
    23db:	e9 40 fc ff ff       	jmp    2020 <_init+0x20>

000023e0 <_ZSt7getlineIcSt11char_traitsIcESaIcEERSt13basic_istreamIT_T0_ES7_RNSt7__cxx1112basic_stringIS4_S5_T1_EES4_@plt>:
    23e0:	ff a3 f8 00 00 00    	jmp    *0xf8(%ebx)
    23e6:	68 d8 01 00 00       	push   $0x1d8
    23eb:	e9 30 fc ff ff       	jmp    2020 <_init+0x20>

000023f0 <__isoc23_strtol@plt>:
    23f0:	ff a3 fc 00 00 00    	jmp    *0xfc(%ebx)
    23f6:	68 e0 01 00 00       	push   $0x1e0
    23fb:	e9 20 fc ff ff       	jmp    2020 <_init+0x20>

00002400 <_ZNSt6localeC1Ev@plt>:
    2400:	ff a3 00 01 00 00    	jmp    *0x100(%ebx)
    2406:	68 e8 01 00 00       	push   $0x1e8
    240b:	e9 10 fc ff ff       	jmp    2020 <_init+0x20>

Déassemblage de la section .plt.got :

00002410 <__cxa_finalize@plt>:
    2410:	ff a3 04 01 00 00    	jmp    *0x104(%ebx)
    2416:	66 90                	xchg   %ax,%ax

Déassemblage de la section .text :

00002420 <_ZN8CPUTimer5printERSo.cold>:
    2420:	83 ec 0c             	sub    $0xc,%esp
    2423:	89 fb                	mov    %edi,%ebx
    2425:	6a 08                	push   $0x8
    2427:	e8 f4 fc ff ff       	call   2120 <__cxa_allocate_exception@plt>
    242c:	59                   	pop    %ecx
    242d:	89 c6                	mov    %eax,%esi
    242f:	58                   	pop    %eax
    2430:	8d 87 4c c1 ff ff    	lea    -0x3eb4(%edi),%eax
    2436:	50                   	push   %eax
    2437:	56                   	push   %esi
    2438:	e8 e3 fe ff ff       	call   2320 <_ZNSt11logic_errorC1EPKc@plt>
    243d:	83 c4 0c             	add    $0xc,%esp
    2440:	ff b7 20 01 00 00    	push   0x120(%edi)
    2446:	ff b7 30 01 00 00    	push   0x130(%edi)
    244c:	56                   	push   %esi
    244d:	e8 4e ff ff ff       	call   23a0 <__cxa_throw@plt>
    2452:	83 ec 0c             	sub    $0xc,%esp
    2455:	89 fb                	mov    %edi,%ebx
    2457:	6a 08                	push   $0x8
    2459:	e8 c2 fc ff ff       	call   2120 <__cxa_allocate_exception@plt>
    245e:	8d 8f 66 c1 ff ff    	lea    -0x3e9a(%edi),%ecx
    2464:	89 c6                	mov    %eax,%esi
    2466:	58                   	pop    %eax
    2467:	5a                   	pop    %edx
    2468:	51                   	push   %ecx
    2469:	56                   	push   %esi
    246a:	e8 b1 fe ff ff       	call   2320 <_ZNSt11logic_errorC1EPKc@plt>
    246f:	83 c4 0c             	add    $0xc,%esp
    2472:	ff b7 20 01 00 00    	push   0x120(%edi)
    2478:	ff b7 30 01 00 00    	push   0x130(%edi)
    247e:	56                   	push   %esi
    247f:	e8 1c ff ff ff       	call   23a0 <__cxa_throw@plt>
    2484:	83 ec 0c             	sub    $0xc,%esp
    2487:	89 45 e4             	mov    %eax,-0x1c(%ebp)
    248a:	89 fb                	mov    %edi,%ebx
    248c:	56                   	push   %esi
    248d:	c5 f8 77             	vzeroupper
    2490:	e8 2b fd ff ff       	call   21c0 <__cxa_free_exception@plt>
    2495:	59                   	pop    %ecx
    2496:	ff 75 e4             	push   -0x1c(%ebp)
    2499:	e8 32 ff ff ff       	call   23d0 <_Unwind_Resume@plt>
    249e:	83 ec 0c             	sub    $0xc,%esp
    24a1:	89 45 e4             	mov    %eax,-0x1c(%ebp)
    24a4:	89 fb                	mov    %edi,%ebx
    24a6:	56                   	push   %esi
    24a7:	c5 f8 77             	vzeroupper
    24aa:	e8 11 fd ff ff       	call   21c0 <__cxa_free_exception@plt>
    24af:	58                   	pop    %eax
    24b0:	ff 75 e4             	push   -0x1c(%ebp)
    24b3:	e8 18 ff ff ff       	call   23d0 <_Unwind_Resume@plt>

000024b8 <_Z12print_centerRNSt7__cxx1112basic_stringIcSt11char_traitsIcESaIcEEE.cold>:
    24b8:	83 ec 0c             	sub    $0xc,%esp
    24bb:	ff 75 98             	push   -0x68(%ebp)
    24be:	89 f3                	mov    %esi,%ebx
    24c0:	c5 f8 77             	vzeroupper
    24c3:	e8 e8 fd ff ff       	call   22b0 <_ZNSt7__cxx1112basic_stringIcSt11char_traitsIcESaIcEE10_M_disposeEv@plt>
    24c8:	83 c4 10             	add    $0x10,%esp
    24cb:	83 ec 0c             	sub    $0xc,%esp
    24ce:	ff 75 94             	push   -0x6c(%ebp)
    24d1:	89 f3                	mov    %esi,%ebx
    24d3:	e8 d8 fd ff ff       	call   22b0 <_ZNSt7__cxx1112basic_stringIcSt11char_traitsIcESaIcEE10_M_disposeEv@plt>
    24d8:	83 c4 10             	add    $0x10,%esp
    24db:	8b 45 e4             	mov    -0x1c(%ebp),%eax
    24de:	65 2b 05 14 00 00 00 	sub    %gs:0x14,%eax
    24e5:	75 09                	jne    24f0 <_Z12print_centerRNSt7__cxx1112basic_stringIcSt11char_traitsIcESaIcEEE.cold+0x38>
    24e7:	83 ec 0c             	sub    $0xc,%esp
    24ea:	57                   	push   %edi
    24eb:	e8 e0 fe ff ff       	call   23d0 <_Unwind_Resume@plt>
    24f0:	e8 ab 84 00 00       	call   a9a0 <__stack_chk_fail_local>

000024f5 <_Z13validity_testPfS_j.cold>:
    24f5:	83 ec 0c             	sub    $0xc,%esp
    24f8:	ff 75 90             	push   -0x70(%ebp)
    24fb:	89 f3                	mov    %esi,%ebx
    24fd:	c5 f8 77             	vzeroupper
    2500:	e8 ab fd ff ff       	call   22b0 <_ZNSt7__cxx1112basic_stringIcSt11char_traitsIcESaIcEE10_M_disposeEv@plt>
    2505:	83 c4 10             	add    $0x10,%esp
    2508:	8b 45 e4             	mov    -0x1c(%ebp),%eax
    250b:	65 2b 05 14 00 00 00 	sub    %gs:0x14,%eax
    2512:	75 31                	jne    2545 <_Z13validity_testPfS_j.cold+0x50>
    2514:	83 ec 0c             	sub    $0xc,%esp
    2517:	57                   	push   %edi
    2518:	e8 b3 fe ff ff       	call   23d0 <_Unwind_Resume@plt>
    251d:	83 ec 0c             	sub    $0xc,%esp
    2520:	89 f3                	mov    %esi,%ebx
    2522:	57                   	push   %edi
    2523:	c5 f8 77             	vzeroupper
    2526:	e8 85 fd ff ff       	call   22b0 <_ZNSt7__cxx1112basic_stringIcSt11char_traitsIcESaIcEE10_M_disposeEv@plt>
    252b:	83 c4 10             	add    $0x10,%esp
    252e:	8b 45 e4             	mov    -0x1c(%ebp),%eax
    2531:	65 2b 05 14 00 00 00 	sub    %gs:0x14,%eax
    2538:	75 0b                	jne    2545 <_Z13validity_testPfS_j.cold+0x50>
    253a:	83 ec 0c             	sub    $0xc,%esp
    253d:	ff 75 a4             	push   -0x5c(%ebp)
    2540:	e8 8b fe ff ff       	call   23d0 <_Unwind_Resume@plt>
    2545:	e8 56 84 00 00       	call   a9a0 <__stack_chk_fail_local>

0000254a <_Z5usageNSt7__cxx1112basic_stringIcSt11char_traitsIcESaIcEEE.cold>:
    254a:	83 ec 0c             	sub    $0xc,%esp
    254d:	8b 9d 6c ff ff ff    	mov    -0x94(%ebp),%ebx
    2553:	ff b5 5c ff ff ff    	push   -0xa4(%ebp)
    2559:	c5 f8 77             	vzeroupper
    255c:	e8 4f fd ff ff       	call   22b0 <_ZNSt7__cxx1112basic_stringIcSt11char_traitsIcESaIcEE10_M_disposeEv@plt>
    2561:	83 c4 10             	add    $0x10,%esp
    2564:	83 ec 0c             	sub    $0xc,%esp
    2567:	8b 9d 6c ff ff ff    	mov    -0x94(%ebp),%ebx
    256d:	ff b5 60 ff ff ff    	push   -0xa0(%ebp)
    2573:	e8 38 fd ff ff       	call   22b0 <_ZNSt7__cxx1112basic_stringIcSt11char_traitsIcESaIcEE10_M_disposeEv@plt>
    2578:	83 c4 10             	add    $0x10,%esp
    257b:	83 ec 0c             	sub    $0xc,%esp
    257e:	8b 9d 6c ff ff ff    	mov    -0x94(%ebp),%ebx
    2584:	ff b5 64 ff ff ff    	push   -0x9c(%ebp)
    258a:	e8 21 fd ff ff       	call   22b0 <_ZNSt7__cxx1112basic_stringIcSt11char_traitsIcESaIcEE10_M_disposeEv@plt>
    258f:	83 c4 10             	add    $0x10,%esp
    2592:	83 ec 0c             	sub    $0xc,%esp
    2595:	8b 9d 6c ff ff ff    	mov    -0x94(%ebp),%ebx
    259b:	ff b5 68 ff ff ff    	push   -0x98(%ebp)
    25a1:	e8 0a fd ff ff       	call   22b0 <_ZNSt7__cxx1112basic_stringIcSt11char_traitsIcESaIcEE10_M_disposeEv@plt>
    25a6:	83 c4 10             	add    $0x10,%esp
    25a9:	8b 45 e4             	mov    -0x1c(%ebp),%eax
    25ac:	65 2b 05 14 00 00 00 	sub    %gs:0x14,%eax
    25b3:	75 0f                	jne    25c4 <_Z5usageNSt7__cxx1112basic_stringIcSt11char_traitsIcESaIcEEE.cold+0x7a>
    25b5:	8b 9d 6c ff ff ff    	mov    -0x94(%ebp),%ebx
    25bb:	83 ec 0c             	sub    $0xc,%esp
    25be:	56                   	push   %esi
    25bf:	e8 0c fe ff ff       	call   23d0 <_Unwind_Resume@plt>
    25c4:	e8 d7 83 00 00       	call   a9a0 <__stack_chk_fail_local>

000025c9 <_Z8tokenizeRSt3setIjSt4lessIjESaIjEENSt7__cxx1112basic_stringIcSt11char_traitsIcESaIcEEEc.cold>:
    25c9:	83 3f 00             	cmpl   $0x0,(%edi)
    25cc:	75 08                	jne    25d6 <_Z8tokenizeRSt3setIjSt4lessIjESaIjEENSt7__cxx1112basic_stringIcSt11char_traitsIcESaIcEEEc.cold+0xd>
    25ce:	8b 85 e8 fe ff ff    	mov    -0x118(%ebp),%eax
    25d4:	89 07                	mov    %eax,(%edi)
    25d6:	83 ec 0c             	sub    $0xc,%esp
    25d9:	8b 9d f4 fe ff ff    	mov    -0x10c(%ebp),%ebx
    25df:	ff b5 dc fe ff ff    	push   -0x124(%ebp)
    25e5:	c5 f8 77             	vzeroupper
    25e8:	e8 13 fb ff ff       	call   2100 <_ZNSt7__cxx1119basic_istringstreamIcSt11char_traitsIcESaIcEED1Ev@plt>
    25ed:	83 c4 10             	add    $0x10,%esp
    25f0:	83 ec 0c             	sub    $0xc,%esp
    25f3:	8b 9d f4 fe ff ff    	mov    -0x10c(%ebp),%ebx
    25f9:	ff b5 e0 fe ff ff    	push   -0x120(%ebp)
    25ff:	e8 ac fc ff ff       	call   22b0 <_ZNSt7__cxx1112basic_stringIcSt11char_traitsIcESaIcEE10_M_disposeEv@plt>
    2604:	83 c4 10             	add    $0x10,%esp
    2607:	8b 45 e4             	mov    -0x1c(%ebp),%eax
    260a:	65 2b 05 14 00 00 00 	sub    %gs:0x14,%eax
    2611:	0f 85 f5 00 00 00    	jne    270c <_Z8tokenizeRSt3setIjSt4lessIjESaIjEENSt7__cxx1112basic_stringIcSt11char_traitsIcESaIcEEEc.cold+0x143>
    2617:	8b 9d f4 fe ff ff    	mov    -0x10c(%ebp),%ebx
    261d:	83 ec 0c             	sub    $0xc,%esp
    2620:	56                   	push   %esi
    2621:	e8 aa fd ff ff       	call   23d0 <_Unwind_Resume@plt>
    2626:	8b 9d b0 fe ff ff    	mov    -0x150(%ebp),%ebx
    262c:	83 ec 0c             	sub    $0xc,%esp
    262f:	8d bd 44 ff ff ff    	lea    -0xbc(%ebp),%edi
    2635:	83 c3 08             	add    $0x8,%ebx
    2638:	89 9d 20 ff ff ff    	mov    %ebx,-0xe0(%ebp)
    263e:	8b 9d f4 fe ff ff    	mov    -0x10c(%ebp),%ebx
    2644:	57                   	push   %edi
    2645:	c5 f8 77             	vzeroupper
    2648:	e8 63 fc ff ff       	call   22b0 <_ZNSt7__cxx1112basic_stringIcSt11char_traitsIcESaIcEE10_M_disposeEv@plt>
    264d:	8b 8d c4 fe ff ff    	mov    -0x13c(%ebp),%ecx
    2653:	83 c1 08             	add    $0x8,%ecx
    2656:	89 8d 20 ff ff ff    	mov    %ecx,-0xe0(%ebp)
    265c:	59                   	pop    %ecx
    265d:	ff b5 c0 fe ff ff    	push   -0x140(%ebp)
    2663:	e8 a8 fc ff ff       	call   2310 <_ZNSt6localeD1Ev@plt>
    2668:	83 c4 10             	add    $0x10,%esp
    266b:	8b 9d bc fe ff ff    	mov    -0x144(%ebp),%ebx
    2671:	8b 8d b8 fe ff ff    	mov    -0x148(%ebp),%ecx
    2677:	31 d2                	xor    %edx,%edx
    2679:	8b 7b f4             	mov    -0xc(%ebx),%edi
    267c:	89 9d 18 ff ff ff    	mov    %ebx,-0xe8(%ebp)
    2682:	89 8c 3d 18 ff ff ff 	mov    %ecx,-0xe8(%ebp,%edi,1)
    2689:	89 95 1c ff ff ff    	mov    %edx,-0xe4(%ebp)
    268f:	8b 85 b4 fe ff ff    	mov    -0x14c(%ebp),%eax
    2695:	83 ec 0c             	sub    $0xc,%esp
    2698:	8b 9d f4 fe ff ff    	mov    -0x10c(%ebp),%ebx
    269e:	83 c0 08             	add    $0x8,%eax
    26a1:	89 85 5c ff ff ff    	mov    %eax,-0xa4(%ebp)
    26a7:	ff b5 d0 fe ff ff    	push   -0x130(%ebp)
    26ad:	e8 ee f9 ff ff       	call   20a0 <_ZNSt8ios_baseD2Ev@plt>
    26b2:	8d 9d 00 ff ff ff    	lea    -0x100(%ebp),%ebx
    26b8:	83 c4 10             	add    $0x10,%esp
    26bb:	89 9d e0 fe ff ff    	mov    %ebx,-0x120(%ebp)
    26c1:	e9 2a ff ff ff       	jmp    25f0 <_Z8tokenizeRSt3setIjSt4lessIjESaIjEENSt7__cxx1112basic_stringIcSt11char_traitsIcESaIcEEEc.cold+0x27>
    26c6:	8b 9d f4 fe ff ff    	mov    -0x10c(%ebp),%ebx
    26cc:	83 ec 0c             	sub    $0xc,%esp
    26cf:	8d 95 44 ff ff ff    	lea    -0xbc(%ebp),%edx
    26d5:	52                   	push   %edx
    26d6:	c5 f8 77             	vzeroupper
    26d9:	e8 d2 fb ff ff       	call   22b0 <_ZNSt7__cxx1112basic_stringIcSt11char_traitsIcESaIcEE10_M_disposeEv@plt>
    26de:	83 c4 10             	add    $0x10,%esp
    26e1:	8b 85 c4 fe ff ff    	mov    -0x13c(%ebp),%eax
    26e7:	83 ec 0c             	sub    $0xc,%esp
    26ea:	8b 9d f4 fe ff ff    	mov    -0x10c(%ebp),%ebx
    26f0:	83 c0 08             	add    $0x8,%eax
    26f3:	89 85 20 ff ff ff    	mov    %eax,-0xe0(%ebp)
    26f9:	ff b5 c0 fe ff ff    	push   -0x140(%ebp)
    26ff:	e8 0c fc ff ff       	call   2310 <_ZNSt6localeD1Ev@plt>
    2704:	83 c4 10             	add    $0x10,%esp
    2707:	e9 5f ff ff ff       	jmp    266b <_Z8tokenizeRSt3setIjSt4lessIjESaIjEENSt7__cxx1112basic_stringIcSt11char_traitsIcESaIcEEEc.cold+0xa2>
    270c:	e8 8f 82 00 00       	call   a9a0 <__stack_chk_fail_local>

00002711 <main.cold>:
    2711:	83 ec 0c             	sub    $0xc,%esp
    2714:	ff b5 68 ff ff ff    	push   -0x98(%ebp)
    271a:	89 fb                	mov    %edi,%ebx
    271c:	c5 f8 77             	vzeroupper
    271f:	e8 8c fb ff ff       	call   22b0 <_ZNSt7__cxx1112basic_stringIcSt11char_traitsIcESaIcEE10_M_disposeEv@plt>
    2724:	83 c4 10             	add    $0x10,%esp
    2727:	83 ec 0c             	sub    $0xc,%esp
    272a:	ff b5 5c ff ff ff    	push   -0xa4(%ebp)
    2730:	89 fb                	mov    %edi,%ebx
    2732:	e8 79 fb ff ff       	call   22b0 <_ZNSt7__cxx1112basic_stringIcSt11char_traitsIcESaIcEE10_M_disposeEv@plt>
    2737:	83 c4 10             	add    $0x10,%esp
    273a:	8b 45 e4             	mov    -0x1c(%ebp),%eax
    273d:	65 2b 05 14 00 00 00 	sub    %gs:0x14,%eax
    2744:	75 1f                	jne    2765 <main.cold+0x54>
    2746:	83 ec 0c             	sub    $0xc,%esp
    2749:	56                   	push   %esi
    274a:	e8 81 fc ff ff       	call   23d0 <_Unwind_Resume@plt>
    274f:	83 ec 0c             	sub    $0xc,%esp
    2752:	89 fb                	mov    %edi,%ebx
    2754:	56                   	push   %esi
    2755:	c5 f8 77             	vzeroupper
    2758:	e8 53 fb ff ff       	call   22b0 <_ZNSt7__cxx1112basic_stringIcSt11char_traitsIcESaIcEE10_M_disposeEv@plt>
    275d:	8b 75 84             	mov    -0x7c(%ebp),%esi
    2760:	83 c4 10             	add    $0x10,%esp
    2763:	eb c2                	jmp    2727 <main.cold+0x16>
    2765:	e8 36 82 00 00       	call   a9a0 <__stack_chk_fail_local>

0000276a <_Z18set_signal_handlerv.cold>:
    276a:	8b 45 e4             	mov    -0x1c(%ebp),%eax
    276d:	65 2b 05 14 00 00 00 	sub    %gs:0x14,%eax
    2774:	75 10                	jne    2786 <_Z18set_signal_handlerv.cold+0x1c>
    2776:	8d 8b 8e c5 ff ff    	lea    -0x3a72(%ebx),%ecx
    277c:	50                   	push   %eax
    277d:	50                   	push   %eax
    277e:	51                   	push   %ecx
    277f:	6a 01                	push   $0x1
    2781:	e8 fa fb ff ff       	call   2380 <err@plt>
    2786:	e8 15 82 00 00       	call   a9a0 <__stack_chk_fail_local>
    278b:	66 90                	xchg   %ax,%ax
    278d:	66 90                	xchg   %ax,%ax
    278f:	90                   	nop

00002790 <_ZNSt7__cxx1112basic_stringIcSt11char_traitsIcESaIcEEC2EPKcRKS3_.isra.0>:
    2790:	55                   	push   %ebp
    2791:	57                   	push   %edi
    2792:	56                   	push   %esi
    2793:	89 c6                	mov    %eax,%esi
    2795:	53                   	push   %ebx
    2796:	89 d5                	mov    %edx,%ebp
    2798:	8d 56 08             	lea    0x8(%esi),%edx
    279b:	83 ec 2c             	sub    $0x2c,%esp
    279e:	65 a1 14 00 00 00    	mov    %gs:0x14,%eax
    27a4:	89 44 24 1c          	mov    %eax,0x1c(%esp)
    27a8:	31 c0                	xor    %eax,%eax
    27aa:	89 16                	mov    %edx,(%esi)
    27ac:	e8 7f 10 00 00       	call   3830 <__x86.get_pc_thunk.bx>
    27b1:	81 c3 0b c7 00 00    	add    $0xc70b,%ebx
    27b7:	85 ed                	test   %ebp,%ebp
    27b9:	0f 84 82 00 00 00    	je     2841 <_ZNSt7__cxx1112basic_stringIcSt11char_traitsIcESaIcEEC2EPKcRKS3_.isra.0+0xb1>
    27bf:	89 54 24 0c          	mov    %edx,0xc(%esp)
    27c3:	83 ec 0c             	sub    $0xc,%esp
    27c6:	55                   	push   %ebp
    27c7:	e8 84 f9 ff ff       	call   2150 <strlen@plt>
    27cc:	83 c4 10             	add    $0x10,%esp
    27cf:	8b 4c 24 0c          	mov    0xc(%esp),%ecx
    27d3:	83 f8 0f             	cmp    $0xf,%eax
    27d6:	89 c7                	mov    %eax,%edi
    27d8:	89 44 24 18          	mov    %eax,0x18(%esp)
    27dc:	77 34                	ja     2812 <_ZNSt7__cxx1112basic_stringIcSt11char_traitsIcESaIcEEC2EPKcRKS3_.isra.0+0x82>
    27de:	83 f8 01             	cmp    $0x1,%eax
    27e1:	75 29                	jne    280c <_ZNSt7__cxx1112basic_stringIcSt11char_traitsIcESaIcEEC2EPKcRKS3_.isra.0+0x7c>
    27e3:	0f b6 45 00          	movzbl 0x0(%ebp),%eax
    27e7:	88 46 08             	mov    %al,0x8(%esi)
    27ea:	8b 5c 24 18          	mov    0x18(%esp),%ebx
    27ee:	89 5e 04             	mov    %ebx,0x4(%esi)
    27f1:	8b 36                	mov    (%esi),%esi
    27f3:	c6 04 1e 00          	movb   $0x0,(%esi,%ebx,1)
    27f7:	8b 44 24 1c          	mov    0x1c(%esp),%eax
    27fb:	65 2b 05 14 00 00 00 	sub    %gs:0x14,%eax
    2802:	75 38                	jne    283c <_ZNSt7__cxx1112basic_stringIcSt11char_traitsIcESaIcEEC2EPKcRKS3_.isra.0+0xac>
    2804:	83 c4 2c             	add    $0x2c,%esp
    2807:	5b                   	pop    %ebx
    2808:	5e                   	pop    %esi
    2809:	5f                   	pop    %edi
    280a:	5d                   	pop    %ebp
    280b:	c3                   	ret
    280c:	85 c0                	test   %eax,%eax
    280e:	74 da                	je     27ea <_ZNSt7__cxx1112basic_stringIcSt11char_traitsIcESaIcEEC2EPKcRKS3_.isra.0+0x5a>
    2810:	eb 1c                	jmp    282e <_ZNSt7__cxx1112basic_stringIcSt11char_traitsIcESaIcEEC2EPKcRKS3_.isra.0+0x9e>
    2812:	52                   	push   %edx
    2813:	6a 00                	push   $0x0
    2815:	8d 54 24 20          	lea    0x20(%esp),%edx
    2819:	52                   	push   %edx
    281a:	56                   	push   %esi
    281b:	e8 90 fb ff ff       	call   23b0 <_ZNSt7__cxx1112basic_stringIcSt11char_traitsIcESaIcEE9_M_createERjj@plt>
    2820:	89 c1                	mov    %eax,%ecx
    2822:	89 06                	mov    %eax,(%esi)
    2824:	8b 44 24 28          	mov    0x28(%esp),%eax
    2828:	83 c4 10             	add    $0x10,%esp
    282b:	89 46 08             	mov    %eax,0x8(%esi)
    282e:	50                   	push   %eax
    282f:	57                   	push   %edi
    2830:	55                   	push   %ebp
    2831:	51                   	push   %ecx
    2832:	e8 f9 f8 ff ff       	call   2130 <memcpy@plt>
    2837:	83 c4 10             	add    $0x10,%esp
    283a:	eb ae                	jmp    27ea <_ZNSt7__cxx1112basic_stringIcSt11char_traitsIcESaIcEEC2EPKcRKS3_.isra.0+0x5a>
    283c:	e8 5f 81 00 00       	call   a9a0 <__stack_chk_fail_local>
    2841:	8b 44 24 1c          	mov    0x1c(%esp),%eax
    2845:	65 2b 05 14 00 00 00 	sub    %gs:0x14,%eax
    284c:	75 ee                	jne    283c <_ZNSt7__cxx1112basic_stringIcSt11char_traitsIcESaIcEEC2EPKcRKS3_.isra.0+0xac>
    284e:	83 ec 0c             	sub    $0xc,%esp
    2851:	8d ab e0 c5 ff ff    	lea    -0x3a20(%ebx),%ebp
    2857:	55                   	push   %ebp
    2858:	e8 53 f9 ff ff       	call   21b0 <_ZSt19__throw_logic_errorPKc@plt>
    285d:	8d 76 00             	lea    0x0(%esi),%esi

00002860 <_GLOBAL__sub_I__Z11gpl_stringsB5cxx11>:
    2860:	8d 4c 24 04          	lea    0x4(%esp),%ecx
    2864:	83 e4 c0             	and    $0xffffffc0,%esp
    2867:	ff 71 fc             	push   -0x4(%ecx)
    286a:	55                   	push   %ebp
    286b:	89 e5                	mov    %esp,%ebp
    286d:	57                   	push   %edi
    286e:	56                   	push   %esi
    286f:	53                   	push   %ebx
    2870:	e8 bb 0f 00 00       	call   3830 <__x86.get_pc_thunk.bx>
    2875:	81 c3 47 c6 00 00    	add    $0xc647,%ebx
    287b:	51                   	push   %ecx
    287c:	8d b3 3c c6 ff ff    	lea    -0x39c4(%ebx),%esi
    2882:	8d bb 88 c1 ff ff    	lea    -0x3e78(%ebx),%edi
    2888:	8d 93 84 c6 ff ff    	lea    -0x397c(%ebx),%edx
    288e:	81 ec 28 01 00 00    	sub    $0x128,%esp
    2894:	c5 f9 6e c6          	vmovd  %esi,%xmm0
    2898:	c5 f9 6e d7          	vmovd  %edi,%xmm2
    289c:	8d 8b 86 c1 ff ff    	lea    -0x3e7a(%ebx),%ecx
    28a2:	65 a1 14 00 00 00    	mov    %gs:0x14,%eax
    28a8:	89 45 c4             	mov    %eax,-0x3c(%ebp)
    28ab:	31 c0                	xor    %eax,%eax
    28ad:	c4 e3 79 22 ca 01    	vpinsrd $0x1,%edx,%xmm0,%xmm1
    28b3:	8d 83 14 c6 ff ff    	lea    -0x39ec(%ebx),%eax
    28b9:	8d b3 20 c7 ff ff    	lea    -0x38e0(%ebx),%esi
    28bf:	8d bb 64 c7 ff ff    	lea    -0x389c(%ebx),%edi
    28c5:	8d 93 c4 c6 ff ff    	lea    -0x393c(%ebx),%edx
    28cb:	c4 e3 69 22 d8 01    	vpinsrd $0x1,%eax,%xmm2,%xmm3
    28d1:	c5 f9 6e f6          	vmovd  %esi,%xmm6
    28d5:	8d b3 00 c9 ff ff    	lea    -0x3700(%ebx),%esi
    28db:	c5 e1 6c e1          	vpunpcklqdq %xmm1,%xmm3,%xmm4
    28df:	c5 f9 6e c9          	vmovd  %ecx,%xmm1
    28e3:	8d 8b f0 c6 ff ff    	lea    -0x3910(%ebx),%ecx
    28e9:	c4 e3 49 22 ff 01    	vpinsrd $0x1,%edi,%xmm6,%xmm7
    28ef:	c5 f9 6e c1          	vmovd  %ecx,%xmm0
    28f3:	8d bb 40 c9 ff ff    	lea    -0x36c0(%ebx),%edi
    28f9:	c4 e3 71 22 ea 01    	vpinsrd $0x1,%edx,%xmm1,%xmm5
    28ff:	c4 e3 71 22 f6 01    	vpinsrd $0x1,%esi,%xmm1,%xmm6
    2905:	c5 f9 62 d1          	vpunpckldq %xmm1,%xmm0,%xmm2
    2909:	c5 f9 7f a5 08 ff ff 	vmovdqa %xmm4,-0xf8(%ebp)
    2910:	ff 
    2911:	8d 93 80 c9 ff ff    	lea    -0x3680(%ebx),%edx
    2917:	c5 f9 6e e7          	vmovd  %edi,%xmm4
    291b:	c5 e9 6c df          	vpunpcklqdq %xmm7,%xmm2,%xmm3
    291f:	8d 8b 98 c8 ff ff    	lea    -0x3768(%ebx),%ecx
    2925:	8d b3 08 c8 ff ff    	lea    -0x37f8(%ebx),%esi
    292b:	c5 f9 d6 ad 28 ff ff 	vmovq  %xmm5,-0xd8(%ebp)
    2932:	ff 
    2933:	c5 f9 6e c1          	vmovd  %ecx,%xmm0
    2937:	c4 e3 59 22 ea 01    	vpinsrd $0x1,%edx,%xmm4,%xmm5
    293d:	c5 f9 7f 9d 18 ff ff 	vmovdqa %xmm3,-0xe8(%ebp)
    2944:	ff 
    2945:	8d 93 dc c8 ff ff    	lea    -0x3724(%ebx),%edx
    294b:	c5 f9 6e de          	vmovd  %esi,%xmm3
    294f:	8d bb 50 c8 ff ff    	lea    -0x37b0(%ebx),%edi
    2955:	c5 c9 6c fd          	vpunpcklqdq %xmm5,%xmm6,%xmm7
    2959:	c4 e3 79 22 d2 01    	vpinsrd $0x1,%edx,%xmm0,%xmm2
    295f:	c4 e3 61 22 e7 01    	vpinsrd $0x1,%edi,%xmm3,%xmm4
    2965:	c5 f9 6e f0          	vmovd  %eax,%xmm6
    2969:	8d 83 e8 c7 ff ff    	lea    -0x3818(%ebx),%eax
    296f:	8d 8b 94 c1 ff ff    	lea    -0x3e6c(%ebx),%ecx
    2975:	c5 d9 6c ea          	vpunpcklqdq %xmm2,%xmm4,%xmm5
    2979:	c5 f9 6e c0          	vmovd  %eax,%xmm0
    297d:	8d 93 ac c7 ff ff    	lea    -0x3854(%ebx),%edx
    2983:	c5 f9 7e 8d 30 ff ff 	vmovd  %xmm1,-0xd0(%ebp)
    298a:	ff 
    298b:	c5 f9 62 d9          	vpunpckldq %xmm1,%xmm0,%xmm3
    298f:	c4 e3 55 38 d7 01    	vinserti128 $0x1,%xmm7,%ymm5,%ymm2
    2995:	8d bb af c1 ff ff    	lea    -0x3e51(%ebx),%edi
    299b:	c4 e3 71 22 ea 01    	vpinsrd $0x1,%edx,%xmm1,%xmm5
    29a1:	c5 c9 62 f9          	vpunpckldq %xmm1,%xmm6,%xmm7
    29a5:	c5 f9 6e c9          	vmovd  %ecx,%xmm1
    29a9:	8d 93 c7 c1 ff ff    	lea    -0x3e39(%ebx),%edx
    29af:	8d b3 48 01 00 00    	lea    0x148(%ebx),%esi
    29b5:	c4 e3 71 22 f7 01    	vpinsrd $0x1,%edi,%xmm1,%xmm6
    29bb:	c5 e1 6c e7          	vpunpcklqdq %xmm7,%xmm3,%xmm4
    29bf:	8d bb 38 03 00 00    	lea    0x338(%ebx),%edi
    29c5:	c5 c9 6c fd          	vpunpcklqdq %xmm5,%xmm6,%xmm7
    29c9:	89 f8                	mov    %edi,%eax
    29cb:	c4 e3 45 38 c4 01    	vinserti128 $0x1,%xmm4,%ymm7,%ymm0
    29d1:	62 f3 fd 48 3a d2 01 	vinserti64x4 $0x1,%ymm2,%zmm0,%zmm2
    29d8:	62 f1 7d 48 7f 95 c8 	vmovdqa32 %zmm2,-0x138(%ebp)
    29df:	fe ff ff 
    29e2:	c5 f8 77             	vzeroupper
    29e5:	e8 a6 fd ff ff       	call   2790 <_ZNSt7__cxx1112basic_stringIcSt11char_traitsIcESaIcEEC2EPKcRKS3_.isra.0>
    29ea:	83 ec 04             	sub    $0x4,%esp
    29ed:	56                   	push   %esi
    29ee:	57                   	push   %edi
    29ef:	8b bb 14 01 00 00    	mov    0x114(%ebx),%edi
    29f5:	57                   	push   %edi
    29f6:	e8 a5 f7 ff ff       	call   21a0 <__cxa_atexit@plt>
    29fb:	83 c4 10             	add    $0x10,%esp
    29fe:	8d 93 cb c1 ff ff    	lea    -0x3e35(%ebx),%edx
    2a04:	8d 83 20 03 00 00    	lea    0x320(%ebx),%eax
    2a0a:	89 85 34 ff ff ff    	mov    %eax,-0xcc(%ebp)
    2a10:	e8 7b fd ff ff       	call   2790 <_ZNSt7__cxx1112basic_stringIcSt11char_traitsIcESaIcEEC2EPKcRKS3_.isra.0>
    2a15:	83 ec 04             	sub    $0x4,%esp
    2a18:	56                   	push   %esi
    2a19:	8b 85 34 ff ff ff    	mov    -0xcc(%ebp),%eax
    2a1f:	50                   	push   %eax
    2a20:	57                   	push   %edi
    2a21:	e8 7a f7 ff ff       	call   21a0 <__cxa_atexit@plt>
    2a26:	83 c4 10             	add    $0x10,%esp
    2a29:	8d 83 08 03 00 00    	lea    0x308(%ebx),%eax
    2a2f:	8d 93 cf c1 ff ff    	lea    -0x3e31(%ebx),%edx
    2a35:	89 85 34 ff ff ff    	mov    %eax,-0xcc(%ebp)
    2a3b:	e8 50 fd ff ff       	call   2790 <_ZNSt7__cxx1112basic_stringIcSt11char_traitsIcESaIcEEC2EPKcRKS3_.isra.0>
    2a40:	83 ec 04             	sub    $0x4,%esp
    2a43:	56                   	push   %esi
    2a44:	8b 95 34 ff ff ff    	mov    -0xcc(%ebp),%edx
    2a4a:	52                   	push   %edx
    2a4b:	57                   	push   %edi
    2a4c:	e8 4f f7 ff ff       	call   21a0 <__cxa_atexit@plt>
    2a51:	83 c4 10             	add    $0x10,%esp
    2a54:	8d 93 d3 c1 ff ff    	lea    -0x3e2d(%ebx),%edx
    2a5a:	8d 83 f0 02 00 00    	lea    0x2f0(%ebx),%eax
    2a60:	89 85 34 ff ff ff    	mov    %eax,-0xcc(%ebp)
    2a66:	e8 25 fd ff ff       	call   2790 <_ZNSt7__cxx1112basic_stringIcSt11char_traitsIcESaIcEEC2EPKcRKS3_.isra.0>
    2a6b:	83 ec 04             	sub    $0x4,%esp
    2a6e:	56                   	push   %esi
    2a6f:	8b 8d 34 ff ff ff    	mov    -0xcc(%ebp),%ecx
    2a75:	51                   	push   %ecx
    2a76:	57                   	push   %edi
    2a77:	e8 24 f7 ff ff       	call   21a0 <__cxa_atexit@plt>
    2a7c:	83 c4 10             	add    $0x10,%esp
    2a7f:	8d 93 d7 c1 ff ff    	lea    -0x3e29(%ebx),%edx
    2a85:	8d 83 d8 02 00 00    	lea    0x2d8(%ebx),%eax
    2a8b:	89 85 34 ff ff ff    	mov    %eax,-0xcc(%ebp)
    2a91:	e8 fa fc ff ff       	call   2790 <_ZNSt7__cxx1112basic_stringIcSt11char_traitsIcESaIcEEC2EPKcRKS3_.isra.0>
    2a96:	83 ec 04             	sub    $0x4,%esp
    2a99:	56                   	push   %esi
    2a9a:	8b 85 34 ff ff ff    	mov    -0xcc(%ebp),%eax
    2aa0:	50                   	push   %eax
    2aa1:	57                   	push   %edi
    2aa2:	e8 f9 f6 ff ff       	call   21a0 <__cxa_atexit@plt>
    2aa7:	83 c4 10             	add    $0x10,%esp
    2aaa:	8d 83 c0 02 00 00    	lea    0x2c0(%ebx),%eax
    2ab0:	8d 93 db c1 ff ff    	lea    -0x3e25(%ebx),%edx
    2ab6:	89 85 34 ff ff ff    	mov    %eax,-0xcc(%ebp)
    2abc:	e8 cf fc ff ff       	call   2790 <_ZNSt7__cxx1112basic_stringIcSt11char_traitsIcESaIcEEC2EPKcRKS3_.isra.0>
    2ac1:	83 ec 04             	sub    $0x4,%esp
    2ac4:	56                   	push   %esi
    2ac5:	8b 95 34 ff ff ff    	mov    -0xcc(%ebp),%edx
    2acb:	52                   	push   %edx
    2acc:	57                   	push   %edi
    2acd:	8d bd 47 ff ff ff    	lea    -0xb9(%ebp),%edi
    2ad3:	e8 c8 f6 ff ff       	call   21a0 <__cxa_atexit@plt>
    2ad8:	62 f1 7d 48 6f 9d c8 	vmovdqa32 -0x138(%ebp),%zmm3
    2adf:	fe ff ff 
    2ae2:	c5 f9 6f a5 18 ff ff 	vmovdqa -0xe8(%ebp),%xmm4
    2ae9:	ff 
    2aea:	83 c4 10             	add    $0x10,%esp
    2aed:	c5 fa 7e ad 28 ff ff 	vmovq  -0xd8(%ebp),%xmm5
    2af4:	ff 
    2af5:	8d 83 b4 02 00 00    	lea    0x2b4(%ebx),%eax
    2afb:	8d 4d a4             	lea    -0x5c(%ebp),%ecx
    2afe:	c5 f9 6e 8d 30 ff ff 	vmovd  -0xd0(%ebp),%xmm1
    2b05:	ff 
    2b06:	c5 f9 7f 65 88       	vmovdqa %xmm4,-0x78(%ebp)
    2b0b:	c5 f9 d6 6d 98       	vmovq  %xmm5,-0x68(%ebp)
    2b10:	c5 f9 7e 4d a0       	vmovd  %xmm1,-0x60(%ebp)
    2b15:	62 f1 7d 48 7f 9d 48 	vmovdqa32 %zmm3,-0xb8(%ebp)
    2b1c:	ff ff ff 
    2b1f:	57                   	push   %edi
    2b20:	89 bd c8 fe ff ff    	mov    %edi,-0x138(%ebp)
    2b26:	8d bd 48 ff ff ff    	lea    -0xb8(%ebp),%edi
    2b2c:	51                   	push   %ecx
    2b2d:	57                   	push   %edi
    2b2e:	50                   	push   %eax
    2b2f:	89 85 34 ff ff ff    	mov    %eax,-0xcc(%ebp)
    2b35:	c5 f8 77             	vzeroupper
    2b38:	e8 73 38 00 00       	call   63b0 <_ZNSt6vectorINSt7__cxx1112basic_stringIcSt11char_traitsIcESaIcEEESaIS5_EEC1IPKPKcvEET_SD_RKS6_>
    2b3d:	83 c4 0c             	add    $0xc,%esp
    2b40:	8d 8b 84 74 ff ff    	lea    -0x8b7c(%ebx),%ecx
    2b46:	56                   	push   %esi
    2b47:	8b 95 34 ff ff ff    	mov    -0xcc(%ebp),%edx
    2b4d:	52                   	push   %edx
    2b4e:	51                   	push   %ecx
    2b4f:	89 8d 34 ff ff ff    	mov    %ecx,-0xcc(%ebp)
    2b55:	e8 46 f6 ff ff       	call   21a0 <__cxa_atexit@plt>
    2b5a:	c5 f9 6f b5 08 ff ff 	vmovdqa -0xf8(%ebp),%xmm6
    2b61:	ff 
    2b62:	8b 95 c8 fe ff ff    	mov    -0x138(%ebp),%edx
    2b68:	83 c4 10             	add    $0x10,%esp
    2b6b:	8d 83 c0 c9 ff ff    	lea    -0x3640(%ebx),%eax
    2b71:	8d 8d 5c ff ff ff    	lea    -0xa4(%ebp),%ecx
    2b77:	89 85 58 ff ff ff    	mov    %eax,-0xa8(%ebp)
    2b7d:	c5 f9 7f b5 48 ff ff 	vmovdqa %xmm6,-0xb8(%ebp)
    2b84:	ff 
    2b85:	52                   	push   %edx
    2b86:	51                   	push   %ecx
    2b87:	57                   	push   %edi
    2b88:	8d bb a8 02 00 00    	lea    0x2a8(%ebx),%edi
    2b8e:	57                   	push   %edi
    2b8f:	e8 1c 38 00 00       	call   63b0 <_ZNSt6vectorINSt7__cxx1112basic_stringIcSt11char_traitsIcESaIcEEESaIS5_EEC1IPKPKcvEET_SD_RKS6_>
    2b94:	83 c4 0c             	add    $0xc,%esp
    2b97:	56                   	push   %esi
    2b98:	57                   	push   %edi
    2b99:	8b b5 34 ff ff ff    	mov    -0xcc(%ebp),%esi
    2b9f:	56                   	push   %esi
    2ba0:	e8 fb f5 ff ff       	call   21a0 <__cxa_atexit@plt>
    2ba5:	83 c4 10             	add    $0x10,%esp
    2ba8:	8b 45 c4             	mov    -0x3c(%ebp),%eax
    2bab:	65 2b 05 14 00 00 00 	sub    %gs:0x14,%eax
    2bb2:	75 0c                	jne    2bc0 <_GLOBAL__sub_I__Z11gpl_stringsB5cxx11+0x360>
    2bb4:	8d 65 f0             	lea    -0x10(%ebp),%esp
    2bb7:	59                   	pop    %ecx
    2bb8:	5b                   	pop    %ebx
    2bb9:	5e                   	pop    %esi
    2bba:	5f                   	pop    %edi
    2bbb:	5d                   	pop    %ebp
    2bbc:	8d 61 fc             	lea    -0x4(%ecx),%esp
    2bbf:	c3                   	ret
    2bc0:	e8 db 7d 00 00       	call   a9a0 <__stack_chk_fail_local>
    2bc5:	66 90                	xchg   %ax,%ax
    2bc7:	66 90                	xchg   %ax,%ax
    2bc9:	66 90                	xchg   %ax,%ax
    2bcb:	66 90                	xchg   %ax,%ax
    2bcd:	66 90                	xchg   %ax,%ax
    2bcf:	90                   	nop

00002bd0 <main>:
    2bd0:	8d 4c 24 04          	lea    0x4(%esp),%ecx
    2bd4:	83 e4 f0             	and    $0xfffffff0,%esp
    2bd7:	ff 71 fc             	push   -0x4(%ecx)
    2bda:	55                   	push   %ebp
    2bdb:	89 e5                	mov    %esp,%ebp
    2bdd:	57                   	push   %edi
    2bde:	56                   	push   %esi
    2bdf:	53                   	push   %ebx
    2be0:	51                   	push   %ecx
    2be1:	8d 5d 8f             	lea    -0x71(%ebp),%ebx
    2be4:	8d 75 c8             	lea    -0x38(%ebp),%esi
    2be7:	81 ec a4 00 00 00    	sub    $0xa4,%esp
    2bed:	8b 01                	mov    (%ecx),%eax
    2bef:	8b 51 04             	mov    0x4(%ecx),%edx
    2bf2:	e8 3b 0e 00 00       	call   3a32 <__x86.get_pc_thunk.di>
    2bf7:	81 c7 c5 c2 00 00    	add    $0xc2c5,%edi
    2bfd:	89 55 80             	mov    %edx,-0x80(%ebp)
    2c00:	89 85 7c ff ff ff    	mov    %eax,-0x84(%ebp)
    2c06:	65 a1 14 00 00 00    	mov    %gs:0x14,%eax
    2c0c:	89 45 e4             	mov    %eax,-0x1c(%ebp)
    2c0f:	31 c0                	xor    %eax,%eax
    2c11:	53                   	push   %ebx
    2c12:	89 fb                	mov    %edi,%ebx
    2c14:	e8 17 78 00 00       	call   a430 <_ZN13SignalHandlerC1Ev>
    2c19:	8d 45 98             	lea    -0x68(%ebp),%eax
    2c1c:	83 c4 10             	add    $0x10,%esp
    2c1f:	8d 97 da c3 ff ff    	lea    -0x3c26(%edi),%edx
    2c25:	89 85 5c ff ff ff    	mov    %eax,-0xa4(%ebp)
    2c2b:	e8 e0 3f 00 00       	call   6c10 <_ZNSt7__cxx1112basic_stringIcSt11char_traitsIcESaIcEEC2EPKcRKS3_.isra.0>
    2c30:	8b 45 98             	mov    -0x68(%ebp),%eax
    2c33:	89 b5 68 ff ff ff    	mov    %esi,-0x98(%ebp)
    2c39:	8b 75 9c             	mov    -0x64(%ebp),%esi
    2c3c:	8d 4d d0             	lea    -0x30(%ebp),%ecx
    2c3f:	89 8d 6c ff ff ff    	mov    %ecx,-0x94(%ebp)
    2c45:	89 4d c8             	mov    %ecx,-0x38(%ebp)
    2c48:	89 45 84             	mov    %eax,-0x7c(%ebp)
    2c4b:	89 75 94             	mov    %esi,-0x6c(%ebp)
    2c4e:	83 fe 0f             	cmp    $0xf,%esi
    2c51:	0f 87 b9 08 00 00    	ja     3510 <.L564+0x680>
    2c57:	83 fe 01             	cmp    $0x1,%esi
    2c5a:	0f 85 cc 02 00 00    	jne    2f2c <.L564+0x9c>
    2c60:	8b 55 84             	mov    -0x7c(%ebp),%edx
    2c63:	0f b6 1a             	movzbl (%edx),%ebx
    2c66:	88 5d d0             	mov    %bl,-0x30(%ebp)
    2c69:	8b 45 94             	mov    -0x6c(%ebp),%eax
    2c6c:	8b 75 c8             	mov    -0x38(%ebp),%esi
    2c6f:	83 ec 0c             	sub    $0xc,%esp
    2c72:	89 fb                	mov    %edi,%ebx
    2c74:	89 45 cc             	mov    %eax,-0x34(%ebp)
    2c77:	c6 04 06 00          	movb   $0x0,(%esi,%eax,1)
    2c7b:	8b b5 68 ff ff ff    	mov    -0x98(%ebp),%esi
    2c81:	56                   	push   %esi
    2c82:	e8 f9 33 00 00       	call   6080 <_Z10gnu_headerNSt7__cxx1112basic_stringIcSt11char_traitsIcESaIcEEE>
    2c87:	89 34 24             	mov    %esi,(%esp)
    2c8a:	e8 21 f6 ff ff       	call   22b0 <_ZNSt7__cxx1112basic_stringIcSt11char_traitsIcESaIcEE10_M_disposeEv@plt>
    2c8f:	8b 87 3c 01 00 00    	mov    0x13c(%edi),%eax
    2c95:	8b b7 28 01 00 00    	mov    0x128(%edi),%esi
    2c9b:	8d 5d 90             	lea    -0x70(%ebp),%ebx
    2c9e:	8d 8f 64 01 00 00    	lea    0x164(%edi),%ecx
    2ca4:	8d 97 e6 c3 ff ff    	lea    -0x3c1a(%edi),%edx
    2caa:	83 c4 10             	add    $0x10,%esp
    2cad:	89 9d 74 ff ff ff    	mov    %ebx,-0x8c(%ebp)
    2cb3:	89 4d 84             	mov    %ecx,-0x7c(%ebp)
    2cb6:	89 95 78 ff ff ff    	mov    %edx,-0x88(%ebp)
    2cbc:	89 85 70 ff ff ff    	mov    %eax,-0x90(%ebp)
    2cc2:	89 b5 60 ff ff ff    	mov    %esi,-0xa0(%ebp)
    2cc8:	2e 8d b4 26 00 00 00 	lea    %cs:0x0(%esi,%eiz,1),%esi
    2ccf:	00 
    2cd0:	83 ec 0c             	sub    $0xc,%esp
    2cd3:	c7 45 90 00 00 00 00 	movl   $0x0,-0x70(%ebp)
    2cda:	ff b5 74 ff ff ff    	push   -0x8c(%ebp)
    2ce0:	ff 75 84             	push   -0x7c(%ebp)
    2ce3:	ff b5 78 ff ff ff    	push   -0x88(%ebp)
    2ce9:	89 fb                	mov    %edi,%ebx
    2ceb:	ff 75 80             	push   -0x80(%ebp)
    2cee:	ff b5 7c ff ff ff    	push   -0x84(%ebp)
    2cf4:	e8 c7 f3 ff ff       	call   20c0 <getopt_long@plt>
    2cf9:	83 c4 20             	add    $0x20,%esp
    2cfc:	83 f8 ff             	cmp    $0xffffffff,%eax
    2cff:	0f 84 3b 04 00 00    	je     3140 <.L564+0x2b0>
    2d05:	85 c0                	test   %eax,%eax
    2d07:	0f 84 33 02 00 00    	je     2f40 <.L564+0xb0>
    2d0d:	83 e8 61             	sub    $0x61,%eax
    2d10:	83 f8 19             	cmp    $0x19,%eax
    2d13:	0f 87 86 08 00 00    	ja     359f <.L553>
    2d19:	8b 84 87 84 ce ff ff 	mov    -0x317c(%edi,%eax,4),%eax
    2d20:	01 f8                	add    %edi,%eax
    2d22:	ff e0                	jmp    *%eax
    2d24:	2e 8d b4 26 00 00 00 	lea    %cs:0x0(%esi,%eiz,1),%esi
    2d2b:	00 
    2d2c:	8d 74 26 00          	lea    0x0(%esi,%eiz,1),%esi

00002d30 <.L554>:
    2d30:	8b b7 28 01 00 00    	mov    0x128(%edi),%esi
    2d36:	83 ec 04             	sub    $0x4,%esp
    2d39:	6a 0a                	push   $0xa
    2d3b:	6a 00                	push   $0x0
    2d3d:	ff 36                	push   (%esi)
    2d3f:	e8 ac f6 ff ff       	call   23f0 <__isoc23_strtol@plt>
    2d44:	83 c4 10             	add    $0x10,%esp
    2d47:	89 87 54 01 00 00    	mov    %eax,0x154(%edi)
    2d4d:	eb 81                	jmp    2cd0 <main+0x100>
    2d4f:	90                   	nop

00002d50 <.L556>:
    2d50:	c6 87 50 03 00 00 01 	movb   $0x1,0x350(%edi)
    2d57:	e9 74 ff ff ff       	jmp    2cd0 <main+0x100>
    2d5c:	8d 74 26 00          	lea    0x0(%esi,%eiz,1),%esi

00002d60 <.L557>:
    2d60:	c6 87 84 03 00 00 01 	movb   $0x1,0x384(%edi)
    2d67:	e9 64 ff ff ff       	jmp    2cd0 <main+0x100>
    2d6c:	8d 74 26 00          	lea    0x0(%esi,%eiz,1),%esi

00002d70 <.L558>:
    2d70:	8b 97 28 01 00 00    	mov    0x128(%edi),%edx
    2d76:	83 ec 04             	sub    $0x4,%esp
    2d79:	6a 0a                	push   $0xa
    2d7b:	6a 00                	push   $0x0
    2d7d:	ff 32                	push   (%edx)
    2d7f:	e8 6c f6 ff ff       	call   23f0 <__isoc23_strtol@plt>
    2d84:	83 c4 10             	add    $0x10,%esp
    2d87:	89 87 58 01 00 00    	mov    %eax,0x158(%edi)
    2d8d:	e9 3e ff ff ff       	jmp    2cd0 <main+0x100>
    2d92:	2e 8d b4 26 00 00 00 	lea    %cs:0x0(%esi,%eiz,1),%esi
    2d99:	00 
    2d9a:	8d b6 00 00 00 00    	lea    0x0(%esi),%esi

00002da0 <.L559>:
    2da0:	8b 9f 28 01 00 00    	mov    0x128(%edi),%ebx
    2da6:	83 ec 0c             	sub    $0xc,%esp
    2da9:	8b 33                	mov    (%ebx),%esi
    2dab:	89 fb                	mov    %edi,%ebx
    2dad:	56                   	push   %esi
    2dae:	e8 9d f3 ff ff       	call   2150 <strlen@plt>
    2db3:	8d 8f 54 03 00 00    	lea    0x354(%edi),%ecx
    2db9:	89 04 24             	mov    %eax,(%esp)
    2dbc:	56                   	push   %esi
    2dbd:	ff b7 58 03 00 00    	push   0x358(%edi)
    2dc3:	6a 00                	push   $0x0
    2dc5:	51                   	push   %ecx
    2dc6:	e8 15 f3 ff ff       	call   20e0 <_ZNSt7__cxx1112basic_stringIcSt11char_traitsIcESaIcEE10_M_replaceEjjPKcj@plt>
    2dcb:	83 c4 20             	add    $0x20,%esp
    2dce:	e9 fd fe ff ff       	jmp    2cd0 <main+0x100>
    2dd3:	2e 8d b4 26 00 00 00 	lea    %cs:0x0(%esi,%eiz,1),%esi
    2dda:	00 
    2ddb:	2e 8d 74 26 00       	lea    %cs:0x0(%esi,%eiz,1),%esi

00002de0 <.L560>:
    2de0:	8b 87 28 01 00 00    	mov    0x128(%edi),%eax
    2de6:	83 ec 04             	sub    $0x4,%esp
    2de9:	6a 0a                	push   $0xa
    2deb:	6a 00                	push   $0x0
    2ded:	ff 30                	push   (%eax)
    2def:	e8 fc f5 ff ff       	call   23f0 <__isoc23_strtol@plt>
    2df4:	83 c4 10             	add    $0x10,%esp
    2df7:	89 87 5c 01 00 00    	mov    %eax,0x15c(%edi)
    2dfd:	e9 ce fe ff ff       	jmp    2cd0 <main+0x100>
    2e02:	2e 8d b4 26 00 00 00 	lea    %cs:0x0(%esi,%eiz,1),%esi
    2e09:	00 
    2e0a:	8d b6 00 00 00 00    	lea    0x0(%esi),%esi

00002e10 <.L563>:
    2e10:	8b 9d 6c ff ff ff    	mov    -0x94(%ebp),%ebx
    2e16:	8b 4d 98             	mov    -0x68(%ebp),%ecx
    2e19:	8b 75 9c             	mov    -0x64(%ebp),%esi
    2e1c:	89 5d c8             	mov    %ebx,-0x38(%ebp)
    2e1f:	89 8d 64 ff ff ff    	mov    %ecx,-0x9c(%ebp)
    2e25:	89 75 94             	mov    %esi,-0x6c(%ebp)
    2e28:	83 fe 0f             	cmp    $0xf,%esi
    2e2b:	0f 87 5f 02 00 00    	ja     3090 <.L564+0x200>
    2e31:	83 fe 01             	cmp    $0x1,%esi
    2e34:	0f 84 26 02 00 00    	je     3060 <.L564+0x1d0>
    2e3a:	85 f6                	test   %esi,%esi
    2e3c:	0f 85 01 07 00 00    	jne    3543 <.L564+0x6b3>
    2e42:	8b 8d 6c ff ff ff    	mov    -0x94(%ebp),%ecx
    2e48:	89 75 cc             	mov    %esi,-0x34(%ebp)
    2e4b:	83 ec 0c             	sub    $0xc,%esp
    2e4e:	c6 04 31 00          	movb   $0x0,(%ecx,%esi,1)
    2e52:	ff b5 68 ff ff ff    	push   -0x98(%ebp)
    2e58:	89 fb                	mov    %edi,%ebx
    2e5a:	e8 81 33 00 00       	call   61e0 <_Z7gnu_gplNSt7__cxx1112basic_stringIcSt11char_traitsIcESaIcEEE>
    2e5f:	8b 45 c8             	mov    -0x38(%ebp),%eax
    2e62:	8b 95 6c ff ff ff    	mov    -0x94(%ebp),%edx
    2e68:	83 c4 10             	add    $0x10,%esp
    2e6b:	39 d0                	cmp    %edx,%eax
    2e6d:	0f 84 5d fe ff ff    	je     2cd0 <main+0x100>
    2e73:	83 ec 0c             	sub    $0xc,%esp
    2e76:	50                   	push   %eax
    2e77:	e8 d4 f3 ff ff       	call   2250 <_ZdlPv@plt>
    2e7c:	83 c4 10             	add    $0x10,%esp
    2e7f:	e9 4c fe ff ff       	jmp    2cd0 <main+0x100>
    2e84:	2e 8d b4 26 00 00 00 	lea    %cs:0x0(%esi,%eiz,1),%esi
    2e8b:	00 
    2e8c:	8d 74 26 00          	lea    0x0(%esi,%eiz,1),%esi

00002e90 <.L564>:
    2e90:	8b 9f 28 01 00 00    	mov    0x128(%edi),%ebx
    2e96:	8b 8d 6c ff ff ff    	mov    -0x94(%ebp),%ecx
    2e9c:	8b 33                	mov    (%ebx),%esi
    2e9e:	89 4d c8             	mov    %ecx,-0x38(%ebp)
    2ea1:	89 b5 64 ff ff ff    	mov    %esi,-0x9c(%ebp)
    2ea7:	85 f6                	test   %esi,%esi
    2ea9:	0f 84 9a 07 00 00    	je     3649 <.L561+0x4d>
    2eaf:	83 ec 0c             	sub    $0xc,%esp
    2eb2:	ff b5 64 ff ff ff    	push   -0x9c(%ebp)
    2eb8:	89 fb                	mov    %edi,%ebx
    2eba:	e8 91 f2 ff ff       	call   2150 <strlen@plt>
    2ebf:	83 c4 10             	add    $0x10,%esp
    2ec2:	89 c6                	mov    %eax,%esi
    2ec4:	89 45 94             	mov    %eax,-0x6c(%ebp)
    2ec7:	83 f8 0f             	cmp    $0xf,%eax
    2eca:	0f 87 10 02 00 00    	ja     30e0 <.L564+0x250>
    2ed0:	83 f8 01             	cmp    $0x1,%eax
    2ed3:	0f 84 97 01 00 00    	je     3070 <.L564+0x1e0>
    2ed9:	85 c0                	test   %eax,%eax
    2edb:	0f 85 6d 06 00 00    	jne    354e <.L564+0x6be>
    2ee1:	8b b5 6c ff ff ff    	mov    -0x94(%ebp),%esi
    2ee7:	83 ec 04             	sub    $0x4,%esp
    2eea:	89 45 cc             	mov    %eax,-0x34(%ebp)
    2eed:	c6 04 06 00          	movb   $0x0,(%esi,%eax,1)
    2ef1:	8d 97 6c 03 00 00    	lea    0x36c(%edi),%edx
    2ef7:	6a 2c                	push   $0x2c
    2ef9:	ff b5 68 ff ff ff    	push   -0x98(%ebp)
    2eff:	52                   	push   %edx
    2f00:	e8 0b 56 00 00       	call   8510 <_Z8tokenizeRSt3setIjSt4lessIjESaIjEENSt7__cxx1112basic_stringIcSt11char_traitsIcESaIcEEEc>
    2f05:	8b 5d c8             	mov    -0x38(%ebp),%ebx
    2f08:	8b 8d 6c ff ff ff    	mov    -0x94(%ebp),%ecx
    2f0e:	83 c4 10             	add    $0x10,%esp
    2f11:	39 cb                	cmp    %ecx,%ebx
    2f13:	0f 84 b7 fd ff ff    	je     2cd0 <main+0x100>
    2f19:	83 ec 0c             	sub    $0xc,%esp
    2f1c:	53                   	push   %ebx
    2f1d:	89 fb                	mov    %edi,%ebx
    2f1f:	e8 2c f3 ff ff       	call   2250 <_ZdlPv@plt>
    2f24:	83 c4 10             	add    $0x10,%esp
    2f27:	e9 a4 fd ff ff       	jmp    2cd0 <main+0x100>
    2f2c:	85 f6                	test   %esi,%esi
    2f2e:	0f 84 35 fd ff ff    	je     2c69 <main+0x99>
    2f34:	8b 85 6c ff ff ff    	mov    -0x94(%ebp),%eax
    2f3a:	e9 ef 05 00 00       	jmp    352e <.L564+0x69e>
    2f3f:	90                   	nop
    2f40:	83 ec 04             	sub    $0x4,%esp
    2f43:	8d 9f f6 c3 ff ff    	lea    -0x3c0a(%edi),%ebx
    2f49:	6a 07                	push   $0x7
    2f4b:	53                   	push   %ebx
    2f4c:	ff b5 70 ff ff ff    	push   -0x90(%ebp)
    2f52:	89 fb                	mov    %edi,%ebx
    2f54:	e8 87 f3 ff ff       	call   22e0 <_ZSt16__ostream_insertIcSt11char_traitsIcEERSt13basic_ostreamIT_T0_ES6_PKS3_i@plt>
    2f59:	8b 45 84             	mov    -0x7c(%ebp),%eax
    2f5c:	b9 04 00 00 00       	mov    $0x4,%ecx
    2f61:	c4 e2 71 f7 55 90    	shlx   %ecx,-0x70(%ebp),%edx
    2f67:	83 c4 10             	add    $0x10,%esp
    2f6a:	8b 34 10             	mov    (%eax,%edx,1),%esi
    2f6d:	85 f6                	test   %esi,%esi
    2f6f:	0f 84 ab 01 00 00    	je     3120 <.L564+0x290>
    2f75:	83 ec 0c             	sub    $0xc,%esp
    2f78:	56                   	push   %esi
    2f79:	e8 d2 f1 ff ff       	call   2150 <strlen@plt>
    2f7e:	83 c4 0c             	add    $0xc,%esp
    2f81:	50                   	push   %eax
    2f82:	56                   	push   %esi
    2f83:	ff b5 70 ff ff ff    	push   -0x90(%ebp)
    2f89:	e8 52 f3 ff ff       	call   22e0 <_ZSt16__ostream_insertIcSt11char_traitsIcEERSt13basic_ostreamIT_T0_ES6_PKS3_i@plt>
    2f8e:	8b b5 60 ff ff ff    	mov    -0xa0(%ebp),%esi
    2f94:	83 c4 10             	add    $0x10,%esp
    2f97:	8b 1e                	mov    (%esi),%ebx
    2f99:	85 db                	test   %ebx,%ebx
    2f9b:	74 42                	je     2fdf <.L564+0x14f>
    2f9d:	83 ec 04             	sub    $0x4,%esp
    2fa0:	8d 8f fe c3 ff ff    	lea    -0x3c02(%edi),%ecx
    2fa6:	89 fb                	mov    %edi,%ebx
    2fa8:	6a 0a                	push   $0xa
    2faa:	51                   	push   %ecx
    2fab:	ff b5 70 ff ff ff    	push   -0x90(%ebp)
    2fb1:	e8 2a f3 ff ff       	call   22e0 <_ZSt16__ostream_insertIcSt11char_traitsIcEERSt13basic_ostreamIT_T0_ES6_PKS3_i@plt>
    2fb6:	8b 36                	mov    (%esi),%esi
    2fb8:	83 c4 10             	add    $0x10,%esp
    2fbb:	85 f6                	test   %esi,%esi
    2fbd:	0f 84 2d 05 00 00    	je     34f0 <.L564+0x660>
    2fc3:	83 ec 0c             	sub    $0xc,%esp
    2fc6:	56                   	push   %esi
    2fc7:	e8 84 f1 ff ff       	call   2150 <strlen@plt>
    2fcc:	83 c4 0c             	add    $0xc,%esp
    2fcf:	50                   	push   %eax
    2fd0:	56                   	push   %esi
    2fd1:	ff b5 70 ff ff ff    	push   -0x90(%ebp)
    2fd7:	e8 04 f3 ff ff       	call   22e0 <_ZSt16__ostream_insertIcSt11char_traitsIcEERSt13basic_ostreamIT_T0_ES6_PKS3_i@plt>
    2fdc:	83 c4 10             	add    $0x10,%esp
    2fdf:	8b 9d 70 ff ff ff    	mov    -0x90(%ebp),%ebx
    2fe5:	8b 33                	mov    (%ebx),%esi
    2fe7:	8b 46 f4             	mov    -0xc(%esi),%eax
    2fea:	8b 74 18 7c          	mov    0x7c(%eax,%ebx,1),%esi
    2fee:	85 f6                	test   %esi,%esi
    2ff0:	0f 84 70 06 00 00    	je     3666 <.L561+0x6a>
    2ff6:	80 7e 1c 00          	cmpb   $0x0,0x1c(%esi)
    2ffa:	74 24                	je     3020 <.L564+0x190>
    2ffc:	0f be 46 27          	movsbl 0x27(%esi),%eax
    3000:	83 ec 08             	sub    $0x8,%esp
    3003:	89 fb                	mov    %edi,%ebx
    3005:	50                   	push   %eax
    3006:	ff b5 70 ff ff ff    	push   -0x90(%ebp)
    300c:	e8 2f f0 ff ff       	call   2040 <_ZNSo3putEc@plt>
    3011:	89 04 24             	mov    %eax,(%esp)
    3014:	e8 77 f1 ff ff       	call   2190 <_ZNSo5flushEv@plt>
    3019:	e9 06 ff ff ff       	jmp    2f24 <.L564+0x94>
    301e:	66 90                	xchg   %ax,%ax
    3020:	83 ec 0c             	sub    $0xc,%esp
    3023:	89 fb                	mov    %edi,%ebx
    3025:	56                   	push   %esi
    3026:	e8 75 f2 ff ff       	call   22a0 <_ZNKSt5ctypeIcE13_M_widen_initEv@plt>
    302b:	8b 16                	mov    (%esi),%edx
    302d:	8d 8f 74 74 ff ff    	lea    -0x8b8c(%edi),%ecx
    3033:	83 c4 10             	add    $0x10,%esp
    3036:	b8 0a 00 00 00       	mov    $0xa,%eax
    303b:	8b 5a 18             	mov    0x18(%edx),%ebx
    303e:	39 cb                	cmp    %ecx,%ebx
    3040:	74 be                	je     3000 <.L564+0x170>
    3042:	50                   	push   %eax
    3043:	50                   	push   %eax
    3044:	6a 0a                	push   $0xa
    3046:	56                   	push   %esi
    3047:	ff d3                	call   *%ebx
    3049:	83 c4 10             	add    $0x10,%esp
    304c:	0f be c0             	movsbl %al,%eax
    304f:	eb af                	jmp    3000 <.L564+0x170>
    3051:	2e 8d b4 26 00 00 00 	lea    %cs:0x0(%esi,%eiz,1),%esi
    3058:	00 
    3059:	8d b4 26 00 00 00 00 	lea    0x0(%esi,%eiz,1),%esi
    3060:	0f b6 01             	movzbl (%ecx),%eax
    3063:	88 45 d0             	mov    %al,-0x30(%ebp)
    3066:	e9 d7 fd ff ff       	jmp    2e42 <.L563+0x32>
    306b:	2e 8d 74 26 00       	lea    %cs:0x0(%esi,%eiz,1),%esi
    3070:	8b 95 64 ff ff ff    	mov    -0x9c(%ebp),%edx
    3076:	0f b6 1a             	movzbl (%edx),%ebx
    3079:	88 5d d0             	mov    %bl,-0x30(%ebp)
    307c:	e9 60 fe ff ff       	jmp    2ee1 <.L564+0x51>
    3081:	2e 8d b4 26 00 00 00 	lea    %cs:0x0(%esi,%eiz,1),%esi
    3088:	00 
    3089:	8d b4 26 00 00 00 00 	lea    0x0(%esi,%eiz,1),%esi
    3090:	83 ec 04             	sub    $0x4,%esp
    3093:	8d 55 94             	lea    -0x6c(%ebp),%edx
    3096:	89 fb                	mov    %edi,%ebx
    3098:	6a 00                	push   $0x0
    309a:	52                   	push   %edx
    309b:	ff b5 68 ff ff ff    	push   -0x98(%ebp)
    30a1:	e8 0a f3 ff ff       	call   23b0 <_ZNSt7__cxx1112basic_stringIcSt11char_traitsIcESaIcEE9_M_createERjj@plt>
    30a6:	8b 5d 94             	mov    -0x6c(%ebp),%ebx
    30a9:	83 c4 10             	add    $0x10,%esp
    30ac:	89 45 c8             	mov    %eax,-0x38(%ebp)
    30af:	89 5d d0             	mov    %ebx,-0x30(%ebp)
    30b2:	83 ec 04             	sub    $0x4,%esp
    30b5:	89 fb                	mov    %edi,%ebx
    30b7:	56                   	push   %esi
    30b8:	ff b5 64 ff ff ff    	push   -0x9c(%ebp)
    30be:	50                   	push   %eax
    30bf:	e8 6c f0 ff ff       	call   2130 <memcpy@plt>
    30c4:	8b 75 94             	mov    -0x6c(%ebp),%esi
    30c7:	8b 4d c8             	mov    -0x38(%ebp),%ecx
    30ca:	83 c4 10             	add    $0x10,%esp
    30cd:	e9 76 fd ff ff       	jmp    2e48 <.L563+0x38>
    30d2:	2e 8d b4 26 00 00 00 	lea    %cs:0x0(%esi,%eiz,1),%esi
    30d9:	00 
    30da:	8d b6 00 00 00 00    	lea    0x0(%esi),%esi
    30e0:	83 ec 04             	sub    $0x4,%esp
    30e3:	8d 45 94             	lea    -0x6c(%ebp),%eax
    30e6:	6a 00                	push   $0x0
    30e8:	50                   	push   %eax
    30e9:	ff b5 68 ff ff ff    	push   -0x98(%ebp)
    30ef:	e8 bc f2 ff ff       	call   23b0 <_ZNSt7__cxx1112basic_stringIcSt11char_traitsIcESaIcEE9_M_createERjj@plt>
    30f4:	8b 4d 94             	mov    -0x6c(%ebp),%ecx
    30f7:	83 c4 10             	add    $0x10,%esp
    30fa:	89 45 c8             	mov    %eax,-0x38(%ebp)
    30fd:	89 4d d0             	mov    %ecx,-0x30(%ebp)
    3100:	83 ec 04             	sub    $0x4,%esp
    3103:	89 fb                	mov    %edi,%ebx
    3105:	56                   	push   %esi
    3106:	ff b5 64 ff ff ff    	push   -0x9c(%ebp)
    310c:	50                   	push   %eax
    310d:	e8 1e f0 ff ff       	call   2130 <memcpy@plt>
    3112:	8b 45 94             	mov    -0x6c(%ebp),%eax
    3115:	8b 75 c8             	mov    -0x38(%ebp),%esi
    3118:	83 c4 10             	add    $0x10,%esp
    311b:	e9 c7 fd ff ff       	jmp    2ee7 <.L564+0x57>
    3120:	8b 95 70 ff ff ff    	mov    -0x90(%ebp),%edx
    3126:	83 ec 08             	sub    $0x8,%esp
    3129:	8b 0a                	mov    (%edx),%ecx
    312b:	03 51 f4             	add    -0xc(%ecx),%edx
    312e:	8b 42 14             	mov    0x14(%edx),%eax
    3131:	83 c8 01             	or     $0x1,%eax
    3134:	50                   	push   %eax
    3135:	52                   	push   %edx
    3136:	e8 55 f2 ff ff       	call   2390 <_ZNSt9basic_iosIcSt11char_traitsIcEE5clearESt12_Ios_Iostate@plt>
    313b:	e9 4e fe ff ff       	jmp    2f8e <.L564+0xfe>
    3140:	8b 87 5c 01 00 00    	mov    0x15c(%edi),%eax
    3146:	85 c0                	test   %eax,%eax
    3148:	0f 84 30 05 00 00    	je     367e <.L561+0x82>
    314e:	8b 97 2c 02 00 00    	mov    0x22c(%edi),%edx
    3154:	85 d2                	test   %edx,%edx
    3156:	0f 84 22 05 00 00    	je     367e <.L561+0x82>
    315c:	8b 9f 34 02 00 00    	mov    0x234(%edi),%ebx
    3162:	85 db                	test   %ebx,%ebx
    3164:	0f 84 f9 03 00 00    	je     3563 <.L564+0x6d3>
    316a:	8b 8f 3c 02 00 00    	mov    0x23c(%edi),%ecx
    3170:	85 c9                	test   %ecx,%ecx
    3172:	0f 84 f5 03 00 00    	je     356d <.L564+0x6dd>
    3178:	8b b7 44 02 00 00    	mov    0x244(%edi),%esi
    317e:	85 f6                	test   %esi,%esi
    3180:	0f 84 f1 03 00 00    	je     3577 <.L564+0x6e7>
    3186:	83 bf 4c 02 00 00 00 	cmpl   $0x0,0x24c(%edi)
    318d:	0f 84 ee 03 00 00    	je     3581 <.L564+0x6f1>
    3193:	83 bf 54 02 00 00 00 	cmpl   $0x0,0x254(%edi)
    319a:	0f 84 eb 03 00 00    	je     358b <.L564+0x6fb>
    31a0:	83 bf 5c 02 00 00 00 	cmpl   $0x0,0x25c(%edi)
    31a7:	0f 84 e8 03 00 00    	je     3595 <.L564+0x705>
    31ad:	83 bf 64 02 00 00 00 	cmpl   $0x0,0x264(%edi)
    31b4:	0f 84 53 04 00 00    	je     360d <.L561+0x11>
    31ba:	83 bf 6c 02 00 00 00 	cmpl   $0x0,0x26c(%edi)
    31c1:	0f 84 50 04 00 00    	je     3617 <.L561+0x1b>
    31c7:	83 bf 74 02 00 00 00 	cmpl   $0x0,0x274(%edi)
    31ce:	0f 84 4d 04 00 00    	je     3621 <.L561+0x25>
    31d4:	83 bf 7c 02 00 00 00 	cmpl   $0x0,0x27c(%edi)
    31db:	0f 84 4a 04 00 00    	je     362b <.L561+0x2f>
    31e1:	83 bf 84 02 00 00 00 	cmpl   $0x0,0x284(%edi)
    31e8:	0f 84 47 04 00 00    	je     3635 <.L561+0x39>
    31ee:	83 bf 8c 02 00 00 00 	cmpl   $0x0,0x28c(%edi)
    31f5:	0f 84 44 04 00 00    	je     363f <.L561+0x43>
    31fb:	83 bf 94 02 00 00 01 	cmpl   $0x1,0x294(%edi)
    3202:	19 d2                	sbb    %edx,%edx
    3204:	83 c2 0e             	add    $0xe,%edx
    3207:	39 c2                	cmp    %eax,%edx
    3209:	0f 82 6f 04 00 00    	jb     367e <.L561+0x82>
    320f:	8b 87 54 01 00 00    	mov    0x154(%edi),%eax
    3215:	85 c0                	test   %eax,%eax
    3217:	75 0a                	jne    3223 <.L564+0x393>
    3219:	c7 87 54 01 00 00 01 	movl   $0x1,0x154(%edi)
    3220:	00 00 00 
    3223:	e8 d8 3a 00 00       	call   6d00 <_Z15report_compilerv>
    3228:	e8 d3 3d 00 00       	call   7000 <_Z18allocate_resourcesv>
    322d:	8b b7 24 01 00 00    	mov    0x124(%edi),%esi
    3233:	83 ec 04             	sub    $0x4,%esp
    3236:	8d 9f 28 c4 ff ff    	lea    -0x3bd8(%edi),%ebx
    323c:	6a 05                	push   $0x5
    323e:	53                   	push   %ebx
    323f:	89 fb                	mov    %edi,%ebx
    3241:	89 b5 7c ff ff ff    	mov    %esi,-0x84(%ebp)
    3247:	56                   	push   %esi
    3248:	e8 93 f0 ff ff       	call   22e0 <_ZSt16__ostream_insertIcSt11char_traitsIcEERSt13basic_ostreamIT_T0_ES6_PKS3_i@plt>
    324d:	58                   	pop    %eax
    324e:	5a                   	pop    %edx
    324f:	ff b7 58 01 00 00    	push   0x158(%edi)
    3255:	56                   	push   %esi
    3256:	e8 25 ef ff ff       	call   2180 <_ZNSo9_M_insertImEERSoT_@plt>
    325b:	89 04 24             	mov    %eax,(%esp)
    325e:	e8 ad ee ff ff       	call   2110 <_ZSt4endlIcSt11char_traitsIcEERSt13basic_ostreamIT_T0_ES6_@plt>
    3263:	8b 8f 58 03 00 00    	mov    0x358(%edi),%ecx
    3269:	83 c4 10             	add    $0x10,%esp
    326c:	85 c9                	test   %ecx,%ecx
    326e:	0f 84 82 00 00 00    	je     32f6 <.L564+0x466>
    3274:	83 bf 2c 02 00 00 00 	cmpl   $0x0,0x22c(%edi)
    327b:	0f 84 73 04 00 00    	je     36f4 <.L561+0xf8>
    3281:	8b 97 54 03 00 00    	mov    0x354(%edi),%edx
    3287:	be 01 00 00 00       	mov    $0x1,%esi
    328c:	89 4d 80             	mov    %ecx,-0x80(%ebp)
    328f:	89 95 78 ff ff ff    	mov    %edx,-0x88(%ebp)
    3295:	ba 08 00 00 00       	mov    $0x8,%edx
    329a:	eb 1b                	jmp    32b7 <.L564+0x427>
    329c:	8d 74 26 00          	lea    0x0(%esi,%eiz,1),%esi
    32a0:	46                   	inc    %esi
    32a1:	8b 9c f7 24 02 00 00 	mov    0x224(%edi,%esi,8),%ebx
    32a8:	8d 14 f5 00 00 00 00 	lea    0x0(,%esi,8),%edx
    32af:	85 db                	test   %ebx,%ebx
    32b1:	0f 84 3d 04 00 00    	je     36f4 <.L561+0xf8>
    32b7:	8b 84 3a 28 02 00 00 	mov    0x228(%edx,%edi,1),%eax
    32be:	83 ec 0c             	sub    $0xc,%esp
    32c1:	89 fb                	mov    %edi,%ebx
    32c3:	50                   	push   %eax
    32c4:	89 45 84             	mov    %eax,-0x7c(%ebp)
    32c7:	e8 84 ee ff ff       	call   2150 <strlen@plt>
    32cc:	83 c4 10             	add    $0x10,%esp
    32cf:	39 45 80             	cmp    %eax,-0x80(%ebp)
    32d2:	8b 4d 84             	mov    -0x7c(%ebp),%ecx
    32d5:	75 c9                	jne    32a0 <.L564+0x410>
    32d7:	83 ec 04             	sub    $0x4,%esp
    32da:	ff 75 80             	push   -0x80(%ebp)
    32dd:	51                   	push   %ecx
    32de:	ff b5 78 ff ff ff    	push   -0x88(%ebp)
    32e4:	e8 37 ef ff ff       	call   2220 <memcmp@plt>
    32e9:	83 c4 10             	add    $0x10,%esp
    32ec:	85 c0                	test   %eax,%eax
    32ee:	75 b0                	jne    32a0 <.L564+0x410>
    32f0:	89 b7 5c 01 00 00    	mov    %esi,0x15c(%edi)
    32f6:	8b b5 7c ff ff ff    	mov    -0x84(%ebp),%esi
    32fc:	83 ec 04             	sub    $0x4,%esp
    32ff:	8d 8f 4b c4 ff ff    	lea    -0x3bb5(%edi),%ecx
    3305:	89 fb                	mov    %edi,%ebx
    3307:	6a 09                	push   $0x9
    3309:	51                   	push   %ecx
    330a:	56                   	push   %esi
    330b:	e8 d0 ef ff ff       	call   22e0 <_ZSt16__ostream_insertIcSt11char_traitsIcEERSt13basic_ostreamIT_T0_ES6_PKS3_i@plt>
    3310:	58                   	pop    %eax
    3311:	5a                   	pop    %edx
    3312:	ff b7 54 01 00 00    	push   0x154(%edi)
    3318:	56                   	push   %esi
    3319:	e8 62 ee ff ff       	call   2180 <_ZNSo9_M_insertImEERSoT_@plt>
    331e:	89 04 24             	mov    %eax,(%esp)
    3321:	e8 ea ed ff ff       	call   2110 <_ZSt4endlIcSt11char_traitsIcEERSt13basic_ostreamIT_T0_ES6_@plt>
    3326:	83 c4 10             	add    $0x10,%esp
    3329:	80 bf 84 03 00 00 00 	cmpb   $0x0,0x384(%edi)
    3330:	0f 85 9a 03 00 00    	jne    36d0 <.L561+0xd4>
    3336:	8b b5 68 ff ff ff    	mov    -0x98(%ebp),%esi
    333c:	83 ec 0c             	sub    $0xc,%esp
    333f:	56                   	push   %esi
    3340:	e8 eb 05 00 00       	call   3930 <_ZN8CPUTimerC1Ev>
    3345:	89 34 24             	mov    %esi,(%esp)
    3348:	e8 f3 05 00 00       	call   3940 <_ZN8CPUTimer5startEv>
    334d:	8b 97 54 01 00 00    	mov    0x154(%edi),%edx
    3353:	83 c4 10             	add    $0x10,%esp
    3356:	85 d2                	test   %edx,%edx
    3358:	0f 84 fb 01 00 00    	je     3559 <.L564+0x6c9>
    335e:	bb 01 00 00 00       	mov    $0x1,%ebx
    3363:	8d b7 24 02 00 00    	lea    0x224(%edi),%esi
    3369:	8d b4 26 00 00 00 00 	lea    0x0(%esi,%eiz,1),%esi
    3370:	ff b7 58 01 00 00    	push   0x158(%edi)
    3376:	68 00 00 40 3f       	push   $0x3f400000
    337b:	ff b7 88 03 00 00    	push   0x388(%edi)
    3381:	8b 87 5c 01 00 00    	mov    0x15c(%edi),%eax
    3387:	ff b7 8c 03 00 00    	push   0x38c(%edi)
    338d:	ff 14 c6             	call   *(%esi,%eax,8)
    3390:	d9 5d 84             	fstps  -0x7c(%ebp)
    3393:	83 c4 10             	add    $0x10,%esp
    3396:	43                   	inc    %ebx
    3397:	39 9f 54 01 00 00    	cmp    %ebx,0x154(%edi)
    339d:	73 d1                	jae    3370 <.L564+0x4e0>
    339f:	83 ec 0c             	sub    $0xc,%esp
    33a2:	ff b5 68 ff ff ff    	push   -0x98(%ebp)
    33a8:	89 fb                	mov    %edi,%ebx
    33aa:	e8 c1 05 00 00       	call   3970 <_ZN8CPUTimer4stopEv>
    33af:	8b b5 7c ff ff ff    	mov    -0x84(%ebp),%esi
    33b5:	83 c4 0c             	add    $0xc,%esp
    33b8:	8d 8f 55 c4 ff ff    	lea    -0x3bab(%edi),%ecx
    33be:	6a 07                	push   $0x7
    33c0:	51                   	push   %ecx
    33c1:	56                   	push   %esi
    33c2:	e8 19 ef ff ff       	call   22e0 <_ZSt16__ostream_insertIcSt11char_traitsIcEERSt13basic_ostreamIT_T0_ES6_PKS3_i@plt>
    33c7:	58                   	pop    %eax
    33c8:	5a                   	pop    %edx
    33c9:	56                   	push   %esi
    33ca:	ff b5 68 ff ff ff    	push   -0x98(%ebp)
    33d0:	e8 cb 05 00 00       	call   39a0 <_ZN8CPUTimer5printERSo>
    33d5:	89 34 24             	mov    %esi,(%esp)
    33d8:	e8 33 ed ff ff       	call   2110 <_ZSt4endlIcSt11char_traitsIcEERSt13basic_ostreamIT_T0_ES6_@plt>
    33dd:	83 c4 0c             	add    $0xc,%esp
    33e0:	8d 97 5d c4 ff ff    	lea    -0x3ba3(%edi),%edx
    33e6:	6a 07                	push   $0x7
    33e8:	52                   	push   %edx
    33e9:	56                   	push   %esi
    33ea:	e8 f1 ee ff ff       	call   22e0 <_ZSt16__ostream_insertIcSt11char_traitsIcEERSt13basic_ostreamIT_T0_ES6_PKS3_i@plt>
    33ef:	d9 45 84             	flds   -0x7c(%ebp)
    33f2:	89 34 24             	mov    %esi,(%esp)
    33f5:	dd 5c 24 04          	fstpl  0x4(%esp)
    33f9:	e8 62 ef ff ff       	call   2360 <_ZNSo9_M_insertIdEERSoT_@plt>
    33fe:	89 04 24             	mov    %eax,(%esp)
    3401:	e8 0a ed ff ff       	call   2110 <_ZSt4endlIcSt11char_traitsIcEERSt13basic_ostreamIT_T0_ES6_@plt>
    3406:	83 c4 0c             	add    $0xc,%esp
    3409:	8d 87 38 c2 ff ff    	lea    -0x3dc8(%edi),%eax
    340f:	6a 0c                	push   $0xc
    3411:	50                   	push   %eax
    3412:	56                   	push   %esi
    3413:	e8 c8 ee ff ff       	call   22e0 <_ZSt16__ostream_insertIcSt11char_traitsIcEERSt13basic_ostreamIT_T0_ES6_PKS3_i@plt>
    3418:	59                   	pop    %ecx
    3419:	8b 8f 5c 01 00 00    	mov    0x15c(%edi),%ecx
    341f:	58                   	pop    %eax
    3420:	ff b4 cf 28 02 00 00 	push   0x228(%edi,%ecx,8)
    3427:	56                   	push   %esi
    3428:	e8 33 ee ff ff       	call   2260 <_ZStlsISt11char_traitsIcEERSt13basic_ostreamIcT_ES5_PKc@plt>
    342d:	89 04 24             	mov    %eax,(%esp)
    3430:	e8 db ec ff ff       	call   2110 <_ZSt4endlIcSt11char_traitsIcEERSt13basic_ostreamIT_T0_ES6_@plt>
    3435:	83 c4 10             	add    $0x10,%esp
    3438:	80 bf 50 03 00 00 00 	cmpb   $0x0,0x350(%edi)
    343f:	74 6b                	je     34ac <.L564+0x61c>
    3441:	8b 9f 58 01 00 00    	mov    0x158(%edi),%ebx
    3447:	8d 75 b0             	lea    -0x50(%ebp),%esi
    344a:	8d 97 d8 c4 ff ff    	lea    -0x3b28(%edi),%edx
    3450:	89 f0                	mov    %esi,%eax
    3452:	89 5d 84             	mov    %ebx,-0x7c(%ebp)
    3455:	8b 9f 8c 03 00 00    	mov    0x38c(%edi),%ebx
    345b:	e8 b0 37 00 00       	call   6c10 <_ZNSt7__cxx1112basic_stringIcSt11char_traitsIcESaIcEEC2EPKcRKS3_.isra.0>
    3460:	52                   	push   %edx
    3461:	ff 75 84             	push   -0x7c(%ebp)
    3464:	53                   	push   %ebx
    3465:	56                   	push   %esi
    3466:	e8 35 39 00 00       	call   6da0 <_Z12print_vectorNSt7__cxx1112basic_stringIcSt11char_traitsIcESaIcEEEPfj>
    346b:	89 fb                	mov    %edi,%ebx
    346d:	89 34 24             	mov    %esi,(%esp)
    3470:	e8 3b ee ff ff       	call   22b0 <_ZNSt7__cxx1112basic_stringIcSt11char_traitsIcESaIcEE10_M_disposeEv@plt>
    3475:	8b 97 58 01 00 00    	mov    0x158(%edi),%edx
    347b:	83 c4 10             	add    $0x10,%esp
    347e:	89 f0                	mov    %esi,%eax
    3480:	8b 9f 88 03 00 00    	mov    0x388(%edi),%ebx
    3486:	89 55 84             	mov    %edx,-0x7c(%ebp)
    3489:	8d 97 fa c1 ff ff    	lea    -0x3e06(%edi),%edx
    348f:	e8 7c 37 00 00       	call   6c10 <_ZNSt7__cxx1112basic_stringIcSt11char_traitsIcESaIcEEC2EPKcRKS3_.isra.0>
    3494:	50                   	push   %eax
    3495:	ff 75 84             	push   -0x7c(%ebp)
    3498:	53                   	push   %ebx
    3499:	56                   	push   %esi
    349a:	e8 01 39 00 00       	call   6da0 <_Z12print_vectorNSt7__cxx1112basic_stringIcSt11char_traitsIcESaIcEEEPfj>
    349f:	89 fb                	mov    %edi,%ebx
    34a1:	89 34 24             	mov    %esi,(%esp)
    34a4:	e8 07 ee ff ff       	call   22b0 <_ZNSt7__cxx1112basic_stringIcSt11char_traitsIcESaIcEE10_M_disposeEv@plt>
    34a9:	83 c4 10             	add    $0x10,%esp
    34ac:	e8 af 41 00 00       	call   7660 <_Z14free_resourcesv>
    34b1:	83 ec 0c             	sub    $0xc,%esp
    34b4:	ff b5 5c ff ff ff    	push   -0xa4(%ebp)
    34ba:	89 fb                	mov    %edi,%ebx
    34bc:	e8 ef ed ff ff       	call   22b0 <_ZNSt7__cxx1112basic_stringIcSt11char_traitsIcESaIcEE10_M_disposeEv@plt>
    34c1:	83 c4 10             	add    $0x10,%esp
    34c4:	8b 45 e4             	mov    -0x1c(%ebp),%eax
    34c7:	65 2b 05 14 00 00 00 	sub    %gs:0x14,%eax
    34ce:	0f 85 a5 01 00 00    	jne    3679 <.L561+0x7d>
    34d4:	8d 65 f0             	lea    -0x10(%ebp),%esp
    34d7:	31 c0                	xor    %eax,%eax
    34d9:	59                   	pop    %ecx
    34da:	5b                   	pop    %ebx
    34db:	5e                   	pop    %esi
    34dc:	5f                   	pop    %edi
    34dd:	5d                   	pop    %ebp
    34de:	8d 61 fc             	lea    -0x4(%ecx),%esp
    34e1:	c3                   	ret
    34e2:	2e 8d b4 26 00 00 00 	lea    %cs:0x0(%esi,%eiz,1),%esi
    34e9:	00 
    34ea:	8d b6 00 00 00 00    	lea    0x0(%esi),%esi
    34f0:	8b 95 70 ff ff ff    	mov    -0x90(%ebp),%edx
    34f6:	83 ec 08             	sub    $0x8,%esp
    34f9:	8b 02                	mov    (%edx),%eax
    34fb:	03 50 f4             	add    -0xc(%eax),%edx
    34fe:	8b 4a 14             	mov    0x14(%edx),%ecx
    3501:	83 c9 01             	or     $0x1,%ecx
    3504:	51                   	push   %ecx
    3505:	52                   	push   %edx
    3506:	e8 85 ee ff ff       	call   2390 <_ZNSt9basic_iosIcSt11char_traitsIcEE5clearESt12_Ios_Iostate@plt>
    350b:	e9 cc fa ff ff       	jmp    2fdc <.L564+0x14c>
    3510:	51                   	push   %ecx
    3511:	8d 4d 94             	lea    -0x6c(%ebp),%ecx
    3514:	6a 00                	push   $0x0
    3516:	51                   	push   %ecx
    3517:	ff b5 68 ff ff ff    	push   -0x98(%ebp)
    351d:	e8 8e ee ff ff       	call   23b0 <_ZNSt7__cxx1112basic_stringIcSt11char_traitsIcESaIcEE9_M_createERjj@plt>
    3522:	8b 55 94             	mov    -0x6c(%ebp),%edx
    3525:	83 c4 10             	add    $0x10,%esp
    3528:	89 45 c8             	mov    %eax,-0x38(%ebp)
    352b:	89 55 d0             	mov    %edx,-0x30(%ebp)
    352e:	52                   	push   %edx
    352f:	56                   	push   %esi
    3530:	ff 75 84             	push   -0x7c(%ebp)
    3533:	89 fb                	mov    %edi,%ebx
    3535:	50                   	push   %eax
    3536:	e8 f5 eb ff ff       	call   2130 <memcpy@plt>
    353b:	83 c4 10             	add    $0x10,%esp
    353e:	e9 26 f7 ff ff       	jmp    2c69 <main+0x99>
    3543:	8b 85 6c ff ff ff    	mov    -0x94(%ebp),%eax
    3549:	e9 64 fb ff ff       	jmp    30b2 <.L564+0x222>
    354e:	8b 85 6c ff ff ff    	mov    -0x94(%ebp),%eax
    3554:	e9 a7 fb ff ff       	jmp    3100 <.L564+0x270>
    3559:	d9 ee                	fldz
    355b:	d9 5d 84             	fstps  -0x7c(%ebp)
    355e:	e9 3c fe ff ff       	jmp    339f <.L564+0x50f>
    3563:	ba 01 00 00 00       	mov    $0x1,%edx
    3568:	e9 9a fc ff ff       	jmp    3207 <.L564+0x377>
    356d:	ba 02 00 00 00       	mov    $0x2,%edx
    3572:	e9 90 fc ff ff       	jmp    3207 <.L564+0x377>
    3577:	ba 03 00 00 00       	mov    $0x3,%edx
    357c:	e9 86 fc ff ff       	jmp    3207 <.L564+0x377>
    3581:	ba 04 00 00 00       	mov    $0x4,%edx
    3586:	e9 7c fc ff ff       	jmp    3207 <.L564+0x377>
    358b:	ba 05 00 00 00       	mov    $0x5,%edx
    3590:	e9 72 fc ff ff       	jmp    3207 <.L564+0x377>
    3595:	ba 06 00 00 00       	mov    $0x6,%edx
    359a:	e9 68 fc ff ff       	jmp    3207 <.L564+0x377>

0000359f <.L553>:
    359f:	8d b7 7c ca ff ff    	lea    -0x3584(%edi),%esi
    35a5:	50                   	push   %eax
    35a6:	6a 26                	push   $0x26
    35a8:	89 fb                	mov    %edi,%ebx
    35aa:	56                   	push   %esi
    35ab:	8b b7 3c 01 00 00    	mov    0x13c(%edi),%esi
    35b1:	56                   	push   %esi
    35b2:	e8 29 ed ff ff       	call   22e0 <_ZSt16__ostream_insertIcSt11char_traitsIcEERSt13basic_ostreamIT_T0_ES6_PKS3_i@plt>
    35b7:	89 34 24             	mov    %esi,(%esp)
    35ba:	e8 51 eb ff ff       	call   2110 <_ZSt4endlIcSt11char_traitsIcEERSt13basic_ostreamIT_T0_ES6_@plt>
    35bf:	83 c4 10             	add    $0x10,%esp
    35c2:	89 fb                	mov    %edi,%ebx
    35c4:	83 ec 0c             	sub    $0xc,%esp
    35c7:	6a 01                	push   $0x1
    35c9:	e8 62 ed ff ff       	call   2330 <exit@plt>

000035ce <.L562>:
    35ce:	8b 55 80             	mov    -0x80(%ebp),%edx
    35d1:	8b 85 68 ff ff ff    	mov    -0x98(%ebp),%eax
    35d7:	8b 12                	mov    (%edx),%edx
    35d9:	e8 32 36 00 00       	call   6c10 <_ZNSt7__cxx1112basic_stringIcSt11char_traitsIcESaIcEEC2EPKcRKS3_.isra.0>
    35de:	8b 45 e4             	mov    -0x1c(%ebp),%eax
    35e1:	65 2b 05 14 00 00 00 	sub    %gs:0x14,%eax
    35e8:	0f 85 8b 00 00 00    	jne    3679 <.L561+0x7d>
    35ee:	83 ec 0c             	sub    $0xc,%esp
    35f1:	ff b5 68 ff ff ff    	push   -0x98(%ebp)
    35f7:	e8 d4 48 00 00       	call   7ed0 <_Z5usageNSt7__cxx1112basic_stringIcSt11char_traitsIcESaIcEEE>

000035fc <.L561>:
    35fc:	8b 45 e4             	mov    -0x1c(%ebp),%eax
    35ff:	65 2b 05 14 00 00 00 	sub    %gs:0x14,%eax
    3606:	75 71                	jne    3679 <.L561+0x7d>
    3608:	e8 13 47 00 00       	call   7d20 <_Z12list_methodsv>
    360d:	ba 07 00 00 00       	mov    $0x7,%edx
    3612:	e9 f0 fb ff ff       	jmp    3207 <.L564+0x377>
    3617:	ba 08 00 00 00       	mov    $0x8,%edx
    361c:	e9 e6 fb ff ff       	jmp    3207 <.L564+0x377>
    3621:	ba 09 00 00 00       	mov    $0x9,%edx
    3626:	e9 dc fb ff ff       	jmp    3207 <.L564+0x377>
    362b:	ba 0a 00 00 00       	mov    $0xa,%edx
    3630:	e9 d2 fb ff ff       	jmp    3207 <.L564+0x377>
    3635:	ba 0b 00 00 00       	mov    $0xb,%edx
    363a:	e9 c8 fb ff ff       	jmp    3207 <.L564+0x377>
    363f:	ba 0c 00 00 00       	mov    $0xc,%edx
    3644:	e9 be fb ff ff       	jmp    3207 <.L564+0x377>
    3649:	8b 45 e4             	mov    -0x1c(%ebp),%eax
    364c:	65 2b 05 14 00 00 00 	sub    %gs:0x14,%eax
    3653:	75 24                	jne    3679 <.L561+0x7d>
    3655:	83 ec 0c             	sub    $0xc,%esp
    3658:	8d 87 e0 c5 ff ff    	lea    -0x3a20(%edi),%eax
    365e:	89 fb                	mov    %edi,%ebx
    3660:	50                   	push   %eax
    3661:	e8 4a eb ff ff       	call   21b0 <_ZSt19__throw_logic_errorPKc@plt>
    3666:	8b 45 e4             	mov    -0x1c(%ebp),%eax
    3669:	65 2b 05 14 00 00 00 	sub    %gs:0x14,%eax
    3670:	75 07                	jne    3679 <.L561+0x7d>
    3672:	89 fb                	mov    %edi,%ebx
    3674:	e8 57 ec ff ff       	call   22d0 <_ZSt16__throw_bad_castv@plt>
    3679:	e8 22 73 00 00       	call   a9a0 <__stack_chk_fail_local>
    367e:	56                   	push   %esi
    367f:	8d b7 09 c4 ff ff    	lea    -0x3bf7(%edi),%esi
    3685:	6a 1c                	push   $0x1c
    3687:	89 fb                	mov    %edi,%ebx
    3689:	56                   	push   %esi
    368a:	8b b7 3c 01 00 00    	mov    0x13c(%edi),%esi
    3690:	56                   	push   %esi
    3691:	e8 4a ec ff ff       	call   22e0 <_ZSt16__ostream_insertIcSt11char_traitsIcEERSt13basic_ostreamIT_T0_ES6_PKS3_i@plt>
    3696:	83 c4 10             	add    $0x10,%esp
    3699:	ba 01 00 00 00       	mov    $0x1,%edx
    369e:	eb 01                	jmp    36a1 <.L561+0xa5>
    36a0:	42                   	inc    %edx
    36a1:	83 bc d7 24 02 00 00 	cmpl   $0x0,0x224(%edi,%edx,8)
    36a8:	00 
    36a9:	75 f5                	jne    36a0 <.L561+0xa4>
    36ab:	4a                   	dec    %edx
    36ac:	89 fb                	mov    %edi,%ebx
    36ae:	51                   	push   %ecx
    36af:	51                   	push   %ecx
    36b0:	52                   	push   %edx
    36b1:	56                   	push   %esi
    36b2:	e8 c9 ea ff ff       	call   2180 <_ZNSo9_M_insertImEERSoT_@plt>
    36b7:	83 c4 0c             	add    $0xc,%esp
    36ba:	89 c6                	mov    %eax,%esi
    36bc:	8d 87 26 c4 ff ff    	lea    -0x3bda(%edi),%eax
    36c2:	6a 01                	push   $0x1
    36c4:	50                   	push   %eax
    36c5:	56                   	push   %esi
    36c6:	e8 15 ec ff ff       	call   22e0 <_ZSt16__ostream_insertIcSt11char_traitsIcEERSt13basic_ostreamIT_T0_ES6_PKS3_i@plt>
    36cb:	e9 e7 fe ff ff       	jmp    35b7 <.L553+0x18>
    36d0:	8b 45 e4             	mov    -0x1c(%ebp),%eax
    36d3:	65 2b 05 14 00 00 00 	sub    %gs:0x14,%eax
    36da:	75 9d                	jne    3679 <.L561+0x7d>
    36dc:	53                   	push   %ebx
    36dd:	ff b7 58 01 00 00    	push   0x158(%edi)
    36e3:	ff b7 88 03 00 00    	push   0x388(%edi)
    36e9:	ff b7 8c 03 00 00    	push   0x38c(%edi)
    36ef:	e8 9c 3f 00 00       	call   7690 <_Z13validity_testPfS_j>
    36f4:	8d b7 2e c4 ff ff    	lea    -0x3bd2(%edi),%esi
    36fa:	51                   	push   %ecx
    36fb:	6a 1c                	push   $0x1c
    36fd:	89 fb                	mov    %edi,%ebx
    36ff:	56                   	push   %esi
    3700:	8b b7 3c 01 00 00    	mov    0x13c(%edi),%esi
    3706:	56                   	push   %esi
    3707:	e8 d4 eb ff ff       	call   22e0 <_ZSt16__ostream_insertIcSt11char_traitsIcEERSt13basic_ostreamIT_T0_ES6_PKS3_i@plt>
    370c:	83 c4 0c             	add    $0xc,%esp
    370f:	ff b7 58 03 00 00    	push   0x358(%edi)
    3715:	ff b7 54 03 00 00    	push   0x354(%edi)
    371b:	56                   	push   %esi
    371c:	e8 bf eb ff ff       	call   22e0 <_ZSt16__ostream_insertIcSt11char_traitsIcEERSt13basic_ostreamIT_T0_ES6_PKS3_i@plt>
    3721:	83 c4 0c             	add    $0xc,%esp
    3724:	89 c6                	mov    %eax,%esi
    3726:	8d 87 49 c4 ff ff    	lea    -0x3bb7(%edi),%eax
    372c:	6a 01                	push   $0x1
    372e:	50                   	push   %eax
    372f:	56                   	push   %esi
    3730:	e8 ab eb ff ff       	call   22e0 <_ZSt16__ostream_insertIcSt11char_traitsIcEERSt13basic_ostreamIT_T0_ES6_PKS3_i@plt>
    3735:	e9 7d fe ff ff       	jmp    35b7 <.L553+0x18>
    373a:	89 c6                	mov    %eax,%esi
    373c:	e9 d0 ef ff ff       	jmp    2711 <main.cold>
    3741:	89 45 84             	mov    %eax,-0x7c(%ebp)
    3744:	e9 06 f0 ff ff       	jmp    274f <main.cold+0x3e>
    3749:	89 c6                	mov    %eax,%esi
    374b:	e9 c1 ef ff ff       	jmp    2711 <main.cold>
    3750:	89 45 84             	mov    %eax,-0x7c(%ebp)
    3753:	e9 f7 ef ff ff       	jmp    274f <main.cold+0x3e>
    3758:	89 c6                	mov    %eax,%esi
    375a:	c5 f8 77             	vzeroupper
    375d:	e9 c5 ef ff ff       	jmp    2727 <main.cold+0x16>
    3762:	89 c6                	mov    %eax,%esi
    3764:	e9 a8 ef ff ff       	jmp    2711 <main.cold>
    3769:	89 c6                	mov    %eax,%esi
    376b:	e9 a1 ef ff ff       	jmp    2711 <main.cold>

00003770 <_GLOBAL__sub_I__Z15report_compilerv>:
    3770:	57                   	push   %edi
    3771:	56                   	push   %esi
    3772:	53                   	push   %ebx
    3773:	e8 b8 00 00 00       	call   3830 <__x86.get_pc_thunk.bx>
    3778:	81 c3 44 b7 00 00    	add    $0xb744,%ebx
    377e:	8d 83 70 03 00 00    	lea    0x370(%ebx),%eax
    3784:	83 ec 04             	sub    $0x4,%esp
    3787:	8d bb 48 01 00 00    	lea    0x148(%ebx),%edi
    378d:	8d 93 24 9e ff ff    	lea    -0x61dc(%ebx),%edx
    3793:	89 83 78 03 00 00    	mov    %eax,0x378(%ebx)
    3799:	89 83 7c 03 00 00    	mov    %eax,0x37c(%ebx)
    379f:	83 e8 04             	sub    $0x4,%eax
    37a2:	57                   	push   %edi
    37a3:	8d b3 54 03 00 00    	lea    0x354(%ebx),%esi
    37a9:	50                   	push   %eax
    37aa:	52                   	push   %edx
    37ab:	c7 83 70 03 00 00 00 	movl   $0x0,0x370(%ebx)
    37b2:	00 00 00 
    37b5:	c7 83 74 03 00 00 00 	movl   $0x0,0x374(%ebx)
    37bc:	00 00 00 
    37bf:	c7 83 80 03 00 00 00 	movl   $0x0,0x380(%ebx)
    37c6:	00 00 00 
    37c9:	e8 d2 e9 ff ff       	call   21a0 <__cxa_atexit@plt>
    37ce:	8d 93 68 c2 ff ff    	lea    -0x3d98(%ebx),%edx
    37d4:	89 f0                	mov    %esi,%eax
    37d6:	83 c4 10             	add    $0x10,%esp
    37d9:	e8 32 34 00 00       	call   6c10 <_ZNSt7__cxx1112basic_stringIcSt11char_traitsIcESaIcEEC2EPKcRKS3_.isra.0>
    37de:	83 ec 04             	sub    $0x4,%esp
    37e1:	57                   	push   %edi
    37e2:	56                   	push   %esi
    37e3:	ff b3 14 01 00 00    	push   0x114(%ebx)
    37e9:	e8 b2 e9 ff ff       	call   21a0 <__cxa_atexit@plt>
    37ee:	83 c4 10             	add    $0x10,%esp
    37f1:	5b                   	pop    %ebx
    37f2:	5e                   	pop    %esi
    37f3:	5f                   	pop    %edi
    37f4:	c3                   	ret
    37f5:	66 90                	xchg   %ax,%ax
    37f7:	66 90                	xchg   %ax,%ax
    37f9:	66 90                	xchg   %ax,%ax
    37fb:	66 90                	xchg   %ax,%ax
    37fd:	66 90                	xchg   %ax,%ax
    37ff:	90                   	nop

00003800 <_start>:
    3800:	31 ed                	xor    %ebp,%ebp
    3802:	5e                   	pop    %esi
    3803:	89 e1                	mov    %esp,%ecx
    3805:	83 e4 f0             	and    $0xfffffff0,%esp
    3808:	50                   	push   %eax
    3809:	54                   	push   %esp
    380a:	52                   	push   %edx
    380b:	e8 18 00 00 00       	call   3828 <_start+0x28>
    3810:	81 c3 ac b6 00 00    	add    $0xb6ac,%ebx
    3816:	6a 00                	push   $0x0
    3818:	6a 00                	push   $0x0
    381a:	51                   	push   %ecx
    381b:	56                   	push   %esi
    381c:	ff b3 10 01 00 00    	push   0x110(%ebx)
    3822:	e8 b9 e9 ff ff       	call   21e0 <__libc_start_main@plt>
    3827:	f4                   	hlt
    3828:	8b 1c 24             	mov    (%esp),%ebx
    382b:	c3                   	ret
    382c:	66 90                	xchg   %ax,%ax
    382e:	66 90                	xchg   %ax,%ax

00003830 <__x86.get_pc_thunk.bx>:
    3830:	8b 1c 24             	mov    (%esp),%ebx
    3833:	c3                   	ret
    3834:	66 90                	xchg   %ax,%ax
    3836:	66 90                	xchg   %ax,%ax
    3838:	66 90                	xchg   %ax,%ax
    383a:	66 90                	xchg   %ax,%ax
    383c:	66 90                	xchg   %ax,%ax
    383e:	66 90                	xchg   %ax,%ax

00003840 <deregister_tm_clones>:
    3840:	e8 e4 00 00 00       	call   3929 <__x86.get_pc_thunk.dx>
    3845:	81 c2 77 b6 00 00    	add    $0xb677,%edx
    384b:	8d 8a a4 02 00 00    	lea    0x2a4(%edx),%ecx
    3851:	8d 82 a4 02 00 00    	lea    0x2a4(%edx),%eax
    3857:	39 c8                	cmp    %ecx,%eax
    3859:	74 1d                	je     3878 <deregister_tm_clones+0x38>
    385b:	8b 82 2c 01 00 00    	mov    0x12c(%edx),%eax
    3861:	85 c0                	test   %eax,%eax
    3863:	74 13                	je     3878 <deregister_tm_clones+0x38>
    3865:	55                   	push   %ebp
    3866:	89 e5                	mov    %esp,%ebp
    3868:	83 ec 14             	sub    $0x14,%esp
    386b:	51                   	push   %ecx
    386c:	ff d0                	call   *%eax
    386e:	83 c4 10             	add    $0x10,%esp
    3871:	c9                   	leave
    3872:	c3                   	ret
    3873:	2e 8d 74 26 00       	lea    %cs:0x0(%esi,%eiz,1),%esi
    3878:	c3                   	ret
    3879:	8d b4 26 00 00 00 00 	lea    0x0(%esi,%eiz,1),%esi

00003880 <register_tm_clones>:
    3880:	e8 a4 00 00 00       	call   3929 <__x86.get_pc_thunk.dx>
    3885:	81 c2 37 b6 00 00    	add    $0xb637,%edx
    388b:	55                   	push   %ebp
    388c:	89 e5                	mov    %esp,%ebp
    388e:	53                   	push   %ebx
    388f:	8d 8a a4 02 00 00    	lea    0x2a4(%edx),%ecx
    3895:	8d 82 a4 02 00 00    	lea    0x2a4(%edx),%eax
    389b:	83 ec 04             	sub    $0x4,%esp
    389e:	29 c8                	sub    %ecx,%eax
    38a0:	89 c3                	mov    %eax,%ebx
    38a2:	c1 e8 1f             	shr    $0x1f,%eax
    38a5:	c1 fb 02             	sar    $0x2,%ebx
    38a8:	01 d8                	add    %ebx,%eax
    38aa:	d1 f8                	sar    $1,%eax
    38ac:	74 14                	je     38c2 <register_tm_clones+0x42>
    38ae:	8b 92 38 01 00 00    	mov    0x138(%edx),%edx
    38b4:	85 d2                	test   %edx,%edx
    38b6:	74 0a                	je     38c2 <register_tm_clones+0x42>
    38b8:	83 ec 08             	sub    $0x8,%esp
    38bb:	50                   	push   %eax
    38bc:	51                   	push   %ecx
    38bd:	ff d2                	call   *%edx
    38bf:	83 c4 10             	add    $0x10,%esp
    38c2:	8b 5d fc             	mov    -0x4(%ebp),%ebx
    38c5:	c9                   	leave
    38c6:	c3                   	ret
    38c7:	2e 8d b4 26 00 00 00 	lea    %cs:0x0(%esi,%eiz,1),%esi
    38ce:	00 
    38cf:	90                   	nop

000038d0 <__do_global_dtors_aux>:
    38d0:	f3 0f 1e fb          	endbr32
    38d4:	55                   	push   %ebp
    38d5:	89 e5                	mov    %esp,%ebp
    38d7:	53                   	push   %ebx
    38d8:	e8 53 ff ff ff       	call   3830 <__x86.get_pc_thunk.bx>
    38dd:	81 c3 df b5 00 00    	add    $0xb5df,%ebx
    38e3:	83 ec 04             	sub    $0x4,%esp
    38e6:	80 bb a4 02 00 00 00 	cmpb   $0x0,0x2a4(%ebx)
    38ed:	75 27                	jne    3916 <__do_global_dtors_aux+0x46>
    38ef:	8b 83 04 01 00 00    	mov    0x104(%ebx),%eax
    38f5:	85 c0                	test   %eax,%eax
    38f7:	74 11                	je     390a <__do_global_dtors_aux+0x3a>
    38f9:	83 ec 0c             	sub    $0xc,%esp
    38fc:	ff b3 48 01 00 00    	push   0x148(%ebx)
    3902:	e8 09 eb ff ff       	call   2410 <__cxa_finalize@plt>
    3907:	83 c4 10             	add    $0x10,%esp
    390a:	e8 31 ff ff ff       	call   3840 <deregister_tm_clones>
    390f:	c6 83 a4 02 00 00 01 	movb   $0x1,0x2a4(%ebx)
    3916:	8b 5d fc             	mov    -0x4(%ebp),%ebx
    3919:	c9                   	leave
    391a:	c3                   	ret
    391b:	2e 8d 74 26 00       	lea    %cs:0x0(%esi,%eiz,1),%esi

00003920 <frame_dummy>:
    3920:	f3 0f 1e fb          	endbr32
    3924:	e9 57 ff ff ff       	jmp    3880 <register_tm_clones>

00003929 <__x86.get_pc_thunk.dx>:
    3929:	8b 14 24             	mov    (%esp),%edx
    392c:	c3                   	ret
    392d:	66 90                	xchg   %ax,%ax
    392f:	90                   	nop

00003930 <_ZN8CPUTimerC1Ev>:
    3930:	8b 44 24 04          	mov    0x4(%esp),%eax
    3934:	66 c7 40 18 00 00    	movw   $0x0,0x18(%eax)
    393a:	c3                   	ret
    393b:	90                   	nop
    393c:	8d 74 26 00          	lea    0x0(%esi,%eiz,1),%esi

00003940 <_ZN8CPUTimer5startEv>:
    3940:	53                   	push   %ebx
    3941:	83 ec 14             	sub    $0x14,%esp
    3944:	8b 44 24 1c          	mov    0x1c(%esp),%eax
    3948:	e8 e3 fe ff ff       	call   3830 <__x86.get_pc_thunk.bx>
    394d:	81 c3 6f b5 00 00    	add    $0xb56f,%ebx
    3953:	c6 40 18 01          	movb   $0x1,0x18(%eax)
    3957:	83 c0 08             	add    $0x8,%eax
    395a:	50                   	push   %eax
    395b:	e8 00 6b 00 00       	call   a460 <cpu_rdtsc_read>
    3960:	83 c4 18             	add    $0x18,%esp
    3963:	5b                   	pop    %ebx
    3964:	c3                   	ret
    3965:	90                   	nop
    3966:	2e 8d b4 26 00 00 00 	lea    %cs:0x0(%esi,%eiz,1),%esi
    396d:	00 
    396e:	66 90                	xchg   %ax,%ax

00003970 <_ZN8CPUTimer4stopEv>:
    3970:	56                   	push   %esi
    3971:	53                   	push   %ebx
    3972:	83 ec 10             	sub    $0x10,%esp
    3975:	8b 74 24 1c          	mov    0x1c(%esp),%esi
    3979:	e8 b2 fe ff ff       	call   3830 <__x86.get_pc_thunk.bx>
    397e:	81 c3 3e b5 00 00    	add    $0xb53e,%ebx
    3984:	8d 46 10             	lea    0x10(%esi),%eax
    3987:	50                   	push   %eax
    3988:	e8 d3 6a 00 00       	call   a460 <cpu_rdtsc_read>
    398d:	c6 46 19 01          	movb   $0x1,0x19(%esi)
    3991:	83 c4 14             	add    $0x14,%esp
    3994:	5b                   	pop    %ebx
    3995:	5e                   	pop    %esi
    3996:	c3                   	ret
    3997:	90                   	nop
    3998:	2e 8d b4 26 00 00 00 	lea    %cs:0x0(%esi,%eiz,1),%esi
    399f:	00 

000039a0 <_ZN8CPUTimer5printERSo>:
    39a0:	55                   	push   %ebp
    39a1:	89 e5                	mov    %esp,%ebp
    39a3:	57                   	push   %edi
    39a4:	56                   	push   %esi
    39a5:	53                   	push   %ebx
    39a6:	83 ec 1c             	sub    $0x1c,%esp
    39a9:	8b 75 08             	mov    0x8(%ebp),%esi
    39ac:	e8 81 00 00 00       	call   3a32 <__x86.get_pc_thunk.di>
    39b1:	81 c7 0b b5 00 00    	add    $0xb50b,%edi
    39b7:	80 7e 18 00          	cmpb   $0x0,0x18(%esi)
    39bb:	0f 84 5f ea ff ff    	je     2420 <_ZN8CPUTimer5printERSo.cold>
    39c1:	80 7e 19 00          	cmpb   $0x0,0x19(%esi)
    39c5:	0f 84 87 ea ff ff    	je     2452 <_ZN8CPUTimer5printERSo.cold+0x32>
    39cb:	31 c0                	xor    %eax,%eax
    39cd:	2b 46 08             	sub    0x8(%esi),%eax
    39d0:	8b 56 14             	mov    0x14(%esi),%edx
    39d3:	8b 4e 10             	mov    0x10(%esi),%ecx
    39d6:	c5 f9 6e c0          	vmovd  %eax,%xmm0
    39da:	8b 46 0c             	mov    0xc(%esi),%eax
    39dd:	83 da 00             	sbb    $0x0,%edx
    39e0:	c5 f9 6e c9          	vmovd  %ecx,%xmm1
    39e4:	c4 e3 79 22 da 01    	vpinsrd $0x1,%edx,%xmm0,%xmm3
    39ea:	31 db                	xor    %ebx,%ebx
    39ec:	31 d2                	xor    %edx,%edx
    39ee:	83 ec 0c             	sub    $0xc,%esp
    39f1:	c4 e3 71 22 e3 01    	vpinsrd $0x1,%ebx,%xmm1,%xmm4
    39f7:	89 fb                	mov    %edi,%ebx
    39f9:	c5 f9 6e d0          	vmovd  %eax,%xmm2
    39fd:	c4 e3 69 22 ea 01    	vpinsrd $0x1,%edx,%xmm2,%xmm5
    3a03:	c5 c9 73 f5 20       	vpsllq $0x20,%xmm5,%xmm6
    3a08:	c5 d9 fb fe          	vpsubq %xmm6,%xmm4,%xmm7
    3a0c:	c5 e1 d4 c7          	vpaddq %xmm7,%xmm3,%xmm0
    3a10:	c5 f9 d6 06          	vmovq  %xmm0,(%esi)
    3a14:	c5 f9 d6 04 24       	vmovq  %xmm0,(%esp)
    3a19:	ff 75 0c             	push   0xc(%ebp)
    3a1c:	e8 4f e7 ff ff       	call   2170 <_ZNSo9_M_insertIyEERSoT_@plt>
    3a21:	66 c7 46 18 00 00    	movw   $0x0,0x18(%esi)
    3a27:	83 c4 10             	add    $0x10,%esp
    3a2a:	8d 65 f4             	lea    -0xc(%ebp),%esp
    3a2d:	5b                   	pop    %ebx
    3a2e:	5e                   	pop    %esi
    3a2f:	5f                   	pop    %edi
    3a30:	5d                   	pop    %ebp
    3a31:	c3                   	ret

00003a32 <__x86.get_pc_thunk.di>:
    3a32:	8b 3c 24             	mov    (%esp),%edi
    3a35:	c3                   	ret
    3a36:	66 90                	xchg   %ax,%ax
    3a38:	66 90                	xchg   %ax,%ax
    3a3a:	66 90                	xchg   %ax,%ax
    3a3c:	66 90                	xchg   %ax,%ax
    3a3e:	66 90                	xchg   %ax,%ax

00003a40 <_ZN2ez2ii8split_asENS0_11IntegerTypeE>:
    3a40:	e8 98 1f 00 00       	call   59dd <__x86.get_pc_thunk.ax>
    3a45:	05 77 b4 00 00       	add    $0xb477,%eax
    3a4a:	8b 54 24 04          	mov    0x4(%esp),%edx
    3a4e:	89 90 50 01 00 00    	mov    %edx,0x150(%eax)
    3a54:	c3                   	ret
    3a55:	2e 8d b4 26 00 00 00 	lea    %cs:0x0(%esi,%eiz,1),%esi
    3a5c:	00 
    3a5d:	8d 76 00             	lea    0x0(%esi),%esi

00003a60 <_ZN2ez2ii16print_i128_u16x8ERSoDv2_x>:
    3a60:	55                   	push   %ebp
    3a61:	57                   	push   %edi
    3a62:	56                   	push   %esi
    3a63:	53                   	push   %ebx
    3a64:	e8 c7 fd ff ff       	call   3830 <__x86.get_pc_thunk.bx>
    3a69:	81 c3 53 b4 00 00    	add    $0xb453,%ebx
    3a6f:	83 ec 2c             	sub    $0x2c,%esp
    3a72:	8b ab 24 01 00 00    	mov    0x124(%ebx),%ebp
    3a78:	8d bb 7f c1 ff ff    	lea    -0x3e81(%ebx),%edi
    3a7e:	8d 44 24 10          	lea    0x10(%esp),%eax
    3a82:	c5 f9 7f 44 24 10    	vmovdqa %xmm0,0x10(%esp)
    3a88:	8d 74 24 1f          	lea    0x1f(%esp),%esi
    3a8c:	89 44 24 0c          	mov    %eax,0xc(%esp)
    3a90:	8b 55 00             	mov    0x0(%ebp),%edx
    3a93:	0f b6 06             	movzbl (%esi),%eax
    3a96:	83 ec 08             	sub    $0x8,%esp
    3a99:	8b 4a f4             	mov    -0xc(%edx),%ecx
    3a9c:	c7 44 0d 08 03 00 00 	movl   $0x3,0x8(%ebp,%ecx,1)
    3aa3:	00 
    3aa4:	50                   	push   %eax
    3aa5:	55                   	push   %ebp
    3aa6:	e8 15 e9 ff ff       	call   23c0 <_ZNSolsEi@plt>
    3aab:	83 c4 0c             	add    $0xc,%esp
    3aae:	6a 03                	push   $0x3
    3ab0:	57                   	push   %edi
    3ab1:	50                   	push   %eax
    3ab2:	e8 29 e8 ff ff       	call   22e0 <_ZSt16__ostream_insertIcSt11char_traitsIcEERSt13basic_ostreamIT_T0_ES6_PKS3_i@plt>
    3ab7:	58                   	pop    %eax
    3ab8:	5a                   	pop    %edx
    3ab9:	8b 55 00             	mov    0x0(%ebp),%edx
    3abc:	0f b6 46 ff          	movzbl -0x1(%esi),%eax
    3ac0:	8b 4a f4             	mov    -0xc(%edx),%ecx
    3ac3:	c7 44 0d 08 03 00 00 	movl   $0x3,0x8(%ebp,%ecx,1)
    3aca:	00 
    3acb:	50                   	push   %eax
    3acc:	55                   	push   %ebp
    3acd:	e8 ee e8 ff ff       	call   23c0 <_ZNSolsEi@plt>
    3ad2:	83 c4 0c             	add    $0xc,%esp
    3ad5:	6a 03                	push   $0x3
    3ad7:	57                   	push   %edi
    3ad8:	50                   	push   %eax
    3ad9:	e8 02 e8 ff ff       	call   22e0 <_ZSt16__ostream_insertIcSt11char_traitsIcEERSt13basic_ostreamIT_T0_ES6_PKS3_i@plt>
    3ade:	8b 55 00             	mov    0x0(%ebp),%edx
    3ae1:	59                   	pop    %ecx
    3ae2:	58                   	pop    %eax
    3ae3:	0f b6 46 fe          	movzbl -0x2(%esi),%eax
    3ae7:	8b 4a f4             	mov    -0xc(%edx),%ecx
    3aea:	c7 44 0d 08 03 00 00 	movl   $0x3,0x8(%ebp,%ecx,1)
    3af1:	00 
    3af2:	50                   	push   %eax
    3af3:	55                   	push   %ebp
    3af4:	e8 c7 e8 ff ff       	call   23c0 <_ZNSolsEi@plt>
    3af9:	83 c4 0c             	add    $0xc,%esp
    3afc:	6a 03                	push   $0x3
    3afe:	57                   	push   %edi
    3aff:	50                   	push   %eax
    3b00:	e8 db e7 ff ff       	call   22e0 <_ZSt16__ostream_insertIcSt11char_traitsIcEERSt13basic_ostreamIT_T0_ES6_PKS3_i@plt>
    3b05:	8b 4d 00             	mov    0x0(%ebp),%ecx
    3b08:	8d 56 fd             	lea    -0x3(%esi),%edx
    3b0b:	83 ee 04             	sub    $0x4,%esi
    3b0e:	89 54 24 18          	mov    %edx,0x18(%esp)
    3b12:	58                   	pop    %eax
    3b13:	5a                   	pop    %edx
    3b14:	0f b6 56 01          	movzbl 0x1(%esi),%edx
    3b18:	8b 41 f4             	mov    -0xc(%ecx),%eax
    3b1b:	c7 44 05 08 03 00 00 	movl   $0x3,0x8(%ebp,%eax,1)
    3b22:	00 
    3b23:	52                   	push   %edx
    3b24:	55                   	push   %ebp
    3b25:	e8 96 e8 ff ff       	call   23c0 <_ZNSolsEi@plt>
    3b2a:	83 c4 0c             	add    $0xc,%esp
    3b2d:	6a 03                	push   $0x3
    3b2f:	57                   	push   %edi
    3b30:	50                   	push   %eax
    3b31:	e8 aa e7 ff ff       	call   22e0 <_ZSt16__ostream_insertIcSt11char_traitsIcEERSt13basic_ostreamIT_T0_ES6_PKS3_i@plt>
    3b36:	83 c4 10             	add    $0x10,%esp
    3b39:	8b 4c 24 08          	mov    0x8(%esp),%ecx
    3b3d:	39 4c 24 0c          	cmp    %ecx,0xc(%esp)
    3b41:	0f 85 49 ff ff ff    	jne    3a90 <_ZN2ez2ii16print_i128_u16x8ERSoDv2_x+0x30>
    3b47:	83 c4 2c             	add    $0x2c,%esp
    3b4a:	5b                   	pop    %ebx
    3b4b:	5e                   	pop    %esi
    3b4c:	5f                   	pop    %edi
    3b4d:	5d                   	pop    %ebp
    3b4e:	c3                   	ret
    3b4f:	90                   	nop

00003b50 <_ZN2ez2ii16print_i128_u8x16ERSoDv2_x>:
    3b50:	55                   	push   %ebp
    3b51:	57                   	push   %edi
    3b52:	56                   	push   %esi
    3b53:	53                   	push   %ebx
    3b54:	e8 d7 fc ff ff       	call   3830 <__x86.get_pc_thunk.bx>
    3b59:	81 c3 63 b3 00 00    	add    $0xb363,%ebx
    3b5f:	83 ec 2c             	sub    $0x2c,%esp
    3b62:	8b ab 24 01 00 00    	mov    0x124(%ebx),%ebp
    3b68:	8d bb 7f c1 ff ff    	lea    -0x3e81(%ebx),%edi
    3b6e:	8d 44 24 10          	lea    0x10(%esp),%eax
    3b72:	c5 f9 7f 44 24 10    	vmovdqa %xmm0,0x10(%esp)
    3b78:	8d 74 24 1e          	lea    0x1e(%esp),%esi
    3b7c:	89 44 24 0c          	mov    %eax,0xc(%esp)
    3b80:	8b 55 00             	mov    0x0(%ebp),%edx
    3b83:	0f b7 06             	movzwl (%esi),%eax
    3b86:	83 ec 08             	sub    $0x8,%esp
    3b89:	8b 4a f4             	mov    -0xc(%edx),%ecx
    3b8c:	c7 44 0d 08 06 00 00 	movl   $0x6,0x8(%ebp,%ecx,1)
    3b93:	00 
    3b94:	50                   	push   %eax
    3b95:	55                   	push   %ebp
    3b96:	e8 e5 e5 ff ff       	call   2180 <_ZNSo9_M_insertImEERSoT_@plt>
    3b9b:	83 c4 0c             	add    $0xc,%esp
    3b9e:	6a 03                	push   $0x3
    3ba0:	57                   	push   %edi
    3ba1:	50                   	push   %eax
    3ba2:	e8 39 e7 ff ff       	call   22e0 <_ZSt16__ostream_insertIcSt11char_traitsIcEERSt13basic_ostreamIT_T0_ES6_PKS3_i@plt>
    3ba7:	58                   	pop    %eax
    3ba8:	5a                   	pop    %edx
    3ba9:	8b 55 00             	mov    0x0(%ebp),%edx
    3bac:	0f b7 46 fe          	movzwl -0x2(%esi),%eax
    3bb0:	8b 4a f4             	mov    -0xc(%edx),%ecx
    3bb3:	c7 44 0d 08 06 00 00 	movl   $0x6,0x8(%ebp,%ecx,1)
    3bba:	00 
    3bbb:	50                   	push   %eax
    3bbc:	55                   	push   %ebp
    3bbd:	e8 be e5 ff ff       	call   2180 <_ZNSo9_M_insertImEERSoT_@plt>
    3bc2:	83 c4 0c             	add    $0xc,%esp
    3bc5:	6a 03                	push   $0x3
    3bc7:	57                   	push   %edi
    3bc8:	50                   	push   %eax
    3bc9:	e8 12 e7 ff ff       	call   22e0 <_ZSt16__ostream_insertIcSt11char_traitsIcEERSt13basic_ostreamIT_T0_ES6_PKS3_i@plt>
    3bce:	8b 55 00             	mov    0x0(%ebp),%edx
    3bd1:	59                   	pop    %ecx
    3bd2:	58                   	pop    %eax
    3bd3:	0f b7 46 fc          	movzwl -0x4(%esi),%eax
    3bd7:	8b 4a f4             	mov    -0xc(%edx),%ecx
    3bda:	c7 44 0d 08 06 00 00 	movl   $0x6,0x8(%ebp,%ecx,1)
    3be1:	00 
    3be2:	50                   	push   %eax
    3be3:	55                   	push   %ebp
    3be4:	e8 97 e5 ff ff       	call   2180 <_ZNSo9_M_insertImEERSoT_@plt>
    3be9:	83 c4 0c             	add    $0xc,%esp
    3bec:	6a 03                	push   $0x3
    3bee:	57                   	push   %edi
    3bef:	50                   	push   %eax
    3bf0:	e8 eb e6 ff ff       	call   22e0 <_ZSt16__ostream_insertIcSt11char_traitsIcEERSt13basic_ostreamIT_T0_ES6_PKS3_i@plt>
    3bf5:	8b 4d 00             	mov    0x0(%ebp),%ecx
    3bf8:	8d 56 fa             	lea    -0x6(%esi),%edx
    3bfb:	83 ee 08             	sub    $0x8,%esi
    3bfe:	89 54 24 18          	mov    %edx,0x18(%esp)
    3c02:	58                   	pop    %eax
    3c03:	5a                   	pop    %edx
    3c04:	0f b7 56 02          	movzwl 0x2(%esi),%edx
    3c08:	8b 41 f4             	mov    -0xc(%ecx),%eax
    3c0b:	c7 44 05 08 06 00 00 	movl   $0x6,0x8(%ebp,%eax,1)
    3c12:	00 
    3c13:	52                   	push   %edx
    3c14:	55                   	push   %ebp
    3c15:	e8 66 e5 ff ff       	call   2180 <_ZNSo9_M_insertImEERSoT_@plt>
    3c1a:	83 c4 0c             	add    $0xc,%esp
    3c1d:	6a 03                	push   $0x3
    3c1f:	57                   	push   %edi
    3c20:	50                   	push   %eax
    3c21:	e8 ba e6 ff ff       	call   22e0 <_ZSt16__ostream_insertIcSt11char_traitsIcEERSt13basic_ostreamIT_T0_ES6_PKS3_i@plt>
    3c26:	83 c4 10             	add    $0x10,%esp
    3c29:	8b 4c 24 08          	mov    0x8(%esp),%ecx
    3c2d:	39 4c 24 0c          	cmp    %ecx,0xc(%esp)
    3c31:	0f 85 49 ff ff ff    	jne    3b80 <_ZN2ez2ii16print_i128_u8x16ERSoDv2_x+0x30>
    3c37:	83 c4 2c             	add    $0x2c,%esp
    3c3a:	5b                   	pop    %ebx
    3c3b:	5e                   	pop    %esi
    3c3c:	5f                   	pop    %edi
    3c3d:	5d                   	pop    %ebp
    3c3e:	c3                   	ret
    3c3f:	90                   	nop

00003c40 <_ZN2ez2ii16print_i128_u4x32ERSoDv2_x>:
    3c40:	55                   	push   %ebp
    3c41:	57                   	push   %edi
    3c42:	56                   	push   %esi
    3c43:	53                   	push   %ebx
    3c44:	e8 e7 fb ff ff       	call   3830 <__x86.get_pc_thunk.bx>
    3c49:	81 c3 73 b2 00 00    	add    $0xb273,%ebx
    3c4f:	83 ec 2c             	sub    $0x2c,%esp
    3c52:	8b ab 24 01 00 00    	mov    0x124(%ebx),%ebp
    3c58:	8d bb 7f c1 ff ff    	lea    -0x3e81(%ebx),%edi
    3c5e:	89 e0                	mov    %esp,%eax
    3c60:	c5 f9 7f 44 24 10    	vmovdqa %xmm0,0x10(%esp)
    3c66:	8d 74 24 10          	lea    0x10(%esp),%esi
    3c6a:	89 44 24 0c          	mov    %eax,0xc(%esp)
    3c6e:	8b 55 00             	mov    0x0(%ebp),%edx
    3c71:	83 ec 08             	sub    $0x8,%esp
    3c74:	83 ee 04             	sub    $0x4,%esi
    3c77:	8b 4a f4             	mov    -0xc(%edx),%ecx
    3c7a:	c7 44 0d 08 0a 00 00 	movl   $0xa,0x8(%ebp,%ecx,1)
    3c81:	00 
    3c82:	ff 76 10             	push   0x10(%esi)
    3c85:	55                   	push   %ebp
    3c86:	e8 f5 e4 ff ff       	call   2180 <_ZNSo9_M_insertImEERSoT_@plt>
    3c8b:	83 c4 0c             	add    $0xc,%esp
    3c8e:	6a 03                	push   $0x3
    3c90:	57                   	push   %edi
    3c91:	50                   	push   %eax
    3c92:	e8 49 e6 ff ff       	call   22e0 <_ZSt16__ostream_insertIcSt11char_traitsIcEERSt13basic_ostreamIT_T0_ES6_PKS3_i@plt>
    3c97:	83 c4 10             	add    $0x10,%esp
    3c9a:	39 74 24 0c          	cmp    %esi,0xc(%esp)
    3c9e:	75 ce                	jne    3c6e <_ZN2ez2ii16print_i128_u4x32ERSoDv2_x+0x2e>
    3ca0:	83 c4 2c             	add    $0x2c,%esp
    3ca3:	5b                   	pop    %ebx
    3ca4:	5e                   	pop    %esi
    3ca5:	5f                   	pop    %edi
    3ca6:	5d                   	pop    %ebp
    3ca7:	c3                   	ret
    3ca8:	2e 8d b4 26 00 00 00 	lea    %cs:0x0(%esi,%eiz,1),%esi
    3caf:	00 

00003cb0 <_ZN2ez2ii16print_i128_u2x64ERSoDv2_x>:
    3cb0:	57                   	push   %edi
    3cb1:	56                   	push   %esi
    3cb2:	53                   	push   %ebx
    3cb3:	c5 f1 73 d8 08       	vpsrldq $0x8,%xmm0,%xmm1
    3cb8:	e8 73 fb ff ff       	call   3830 <__x86.get_pc_thunk.bx>
    3cbd:	81 c3 ff b1 00 00    	add    $0xb1ff,%ebx
    3cc3:	83 ec 24             	sub    $0x24,%esp
    3cc6:	8b b3 24 01 00 00    	mov    0x124(%ebx),%esi
    3ccc:	8d bb 7f c1 ff ff    	lea    -0x3e81(%ebx),%edi
    3cd2:	c5 f9 7f 4c 24 04    	vmovdqa %xmm1,0x4(%esp)
    3cd8:	c5 f9 7f 44 24 14    	vmovdqa %xmm0,0x14(%esp)
    3cde:	8b 06                	mov    (%esi),%eax
    3ce0:	8b 50 f4             	mov    -0xc(%eax),%edx
    3ce3:	c7 44 32 08 0a 00 00 	movl   $0xa,0x8(%edx,%esi,1)
    3cea:	00 
    3ceb:	ff 74 24 08          	push   0x8(%esp)
    3cef:	ff 74 24 08          	push   0x8(%esp)
    3cf3:	56                   	push   %esi
    3cf4:	e8 77 e4 ff ff       	call   2170 <_ZNSo9_M_insertIyEERSoT_@plt>
    3cf9:	83 c4 0c             	add    $0xc,%esp
    3cfc:	6a 03                	push   $0x3
    3cfe:	57                   	push   %edi
    3cff:	50                   	push   %eax
    3d00:	e8 db e5 ff ff       	call   22e0 <_ZSt16__ostream_insertIcSt11char_traitsIcEERSt13basic_ostreamIT_T0_ES6_PKS3_i@plt>
    3d05:	8b 0e                	mov    (%esi),%ecx
    3d07:	c5 f9 6f 44 24 20    	vmovdqa 0x20(%esp),%xmm0
    3d0d:	83 c4 0c             	add    $0xc,%esp
    3d10:	8b 41 f4             	mov    -0xc(%ecx),%eax
    3d13:	c5 f9 7f 44 24 04    	vmovdqa %xmm0,0x4(%esp)
    3d19:	c7 44 30 08 0a 00 00 	movl   $0xa,0x8(%eax,%esi,1)
    3d20:	00 
    3d21:	ff 74 24 08          	push   0x8(%esp)
    3d25:	ff 74 24 08          	push   0x8(%esp)
    3d29:	56                   	push   %esi
    3d2a:	e8 41 e4 ff ff       	call   2170 <_ZNSo9_M_insertIyEERSoT_@plt>
    3d2f:	83 c4 0c             	add    $0xc,%esp
    3d32:	6a 03                	push   $0x3
    3d34:	57                   	push   %edi
    3d35:	50                   	push   %eax
    3d36:	e8 a5 e5 ff ff       	call   22e0 <_ZSt16__ostream_insertIcSt11char_traitsIcEERSt13basic_ostreamIT_T0_ES6_PKS3_i@plt>
    3d3b:	83 c4 30             	add    $0x30,%esp
    3d3e:	5b                   	pop    %ebx
    3d3f:	5e                   	pop    %esi
    3d40:	5f                   	pop    %edi
    3d41:	c3                   	ret
    3d42:	2e 8d b4 26 00 00 00 	lea    %cs:0x0(%esi,%eiz,1),%esi
    3d49:	00 
    3d4a:	8d b6 00 00 00 00    	lea    0x0(%esi),%esi

00003d50 <_ZN2ez2ii16print_i128_i16x8ERSoDv2_x>:
    3d50:	55                   	push   %ebp
    3d51:	57                   	push   %edi
    3d52:	56                   	push   %esi
    3d53:	53                   	push   %ebx
    3d54:	e8 d7 fa ff ff       	call   3830 <__x86.get_pc_thunk.bx>
    3d59:	81 c3 63 b1 00 00    	add    $0xb163,%ebx
    3d5f:	83 ec 2c             	sub    $0x2c,%esp
    3d62:	8b ab 24 01 00 00    	mov    0x124(%ebx),%ebp
    3d68:	8d bb 7f c1 ff ff    	lea    -0x3e81(%ebx),%edi
    3d6e:	8d 44 24 10          	lea    0x10(%esp),%eax
    3d72:	c5 f9 7f 44 24 10    	vmovdqa %xmm0,0x10(%esp)
    3d78:	8d 74 24 1f          	lea    0x1f(%esp),%esi
    3d7c:	89 44 24 0c          	mov    %eax,0xc(%esp)
    3d80:	8b 55 00             	mov    0x0(%ebp),%edx
    3d83:	0f be 06             	movsbl (%esi),%eax
    3d86:	83 ec 08             	sub    $0x8,%esp
    3d89:	8b 4a f4             	mov    -0xc(%edx),%ecx
    3d8c:	c7 44 0d 08 03 00 00 	movl   $0x3,0x8(%ebp,%ecx,1)
    3d93:	00 
    3d94:	50                   	push   %eax
    3d95:	55                   	push   %ebp
    3d96:	e8 25 e6 ff ff       	call   23c0 <_ZNSolsEi@plt>
    3d9b:	83 c4 0c             	add    $0xc,%esp
    3d9e:	6a 03                	push   $0x3
    3da0:	57                   	push   %edi
    3da1:	50                   	push   %eax
    3da2:	e8 39 e5 ff ff       	call   22e0 <_ZSt16__ostream_insertIcSt11char_traitsIcEERSt13basic_ostreamIT_T0_ES6_PKS3_i@plt>
    3da7:	58                   	pop    %eax
    3da8:	5a                   	pop    %edx
    3da9:	8b 55 00             	mov    0x0(%ebp),%edx
    3dac:	0f be 46 ff          	movsbl -0x1(%esi),%eax
    3db0:	8b 4a f4             	mov    -0xc(%edx),%ecx
    3db3:	c7 44 0d 08 03 00 00 	movl   $0x3,0x8(%ebp,%ecx,1)
    3dba:	00 
    3dbb:	50                   	push   %eax
    3dbc:	55                   	push   %ebp
    3dbd:	e8 fe e5 ff ff       	call   23c0 <_ZNSolsEi@plt>
    3dc2:	83 c4 0c             	add    $0xc,%esp
    3dc5:	6a 03                	push   $0x3
    3dc7:	57                   	push   %edi
    3dc8:	50                   	push   %eax
    3dc9:	e8 12 e5 ff ff       	call   22e0 <_ZSt16__ostream_insertIcSt11char_traitsIcEERSt13basic_ostreamIT_T0_ES6_PKS3_i@plt>
    3dce:	8b 55 00             	mov    0x0(%ebp),%edx
    3dd1:	59                   	pop    %ecx
    3dd2:	58                   	pop    %eax
    3dd3:	0f be 46 fe          	movsbl -0x2(%esi),%eax
    3dd7:	8b 4a f4             	mov    -0xc(%edx),%ecx
    3dda:	c7 44 0d 08 03 00 00 	movl   $0x3,0x8(%ebp,%ecx,1)
    3de1:	00 
    3de2:	50                   	push   %eax
    3de3:	55                   	push   %ebp
    3de4:	e8 d7 e5 ff ff       	call   23c0 <_ZNSolsEi@plt>
    3de9:	83 c4 0c             	add    $0xc,%esp
    3dec:	6a 03                	push   $0x3
    3dee:	57                   	push   %edi
    3def:	50                   	push   %eax
    3df0:	e8 eb e4 ff ff       	call   22e0 <_ZSt16__ostream_insertIcSt11char_traitsIcEERSt13basic_ostreamIT_T0_ES6_PKS3_i@plt>
    3df5:	8b 4d 00             	mov    0x0(%ebp),%ecx
    3df8:	8d 56 fd             	lea    -0x3(%esi),%edx
    3dfb:	83 ee 04             	sub    $0x4,%esi
    3dfe:	89 54 24 18          	mov    %edx,0x18(%esp)
    3e02:	58                   	pop    %eax
    3e03:	5a                   	pop    %edx
    3e04:	0f be 56 01          	movsbl 0x1(%esi),%edx
    3e08:	8b 41 f4             	mov    -0xc(%ecx),%eax
    3e0b:	c7 44 05 08 03 00 00 	movl   $0x3,0x8(%ebp,%eax,1)
    3e12:	00 
    3e13:	52                   	push   %edx
    3e14:	55                   	push   %ebp
    3e15:	e8 a6 e5 ff ff       	call   23c0 <_ZNSolsEi@plt>
    3e1a:	83 c4 0c             	add    $0xc,%esp
    3e1d:	6a 03                	push   $0x3
    3e1f:	57                   	push   %edi
    3e20:	50                   	push   %eax
    3e21:	e8 ba e4 ff ff       	call   22e0 <_ZSt16__ostream_insertIcSt11char_traitsIcEERSt13basic_ostreamIT_T0_ES6_PKS3_i@plt>
    3e26:	83 c4 10             	add    $0x10,%esp
    3e29:	8b 4c 24 08          	mov    0x8(%esp),%ecx
    3e2d:	39 4c 24 0c          	cmp    %ecx,0xc(%esp)
    3e31:	0f 85 49 ff ff ff    	jne    3d80 <_ZN2ez2ii16print_i128_i16x8ERSoDv2_x+0x30>
    3e37:	83 c4 2c             	add    $0x2c,%esp
    3e3a:	5b                   	pop    %ebx
    3e3b:	5e                   	pop    %esi
    3e3c:	5f                   	pop    %edi
    3e3d:	5d                   	pop    %ebp
    3e3e:	c3                   	ret
    3e3f:	90                   	nop

00003e40 <_ZN2ez2ii16print_i128_i8x16ERSoDv2_x>:
    3e40:	55                   	push   %ebp
    3e41:	57                   	push   %edi
    3e42:	56                   	push   %esi
    3e43:	53                   	push   %ebx
    3e44:	e8 e7 f9 ff ff       	call   3830 <__x86.get_pc_thunk.bx>
    3e49:	81 c3 73 b0 00 00    	add    $0xb073,%ebx
    3e4f:	83 ec 2c             	sub    $0x2c,%esp
    3e52:	8b ab 24 01 00 00    	mov    0x124(%ebx),%ebp
    3e58:	8d bb 7f c1 ff ff    	lea    -0x3e81(%ebx),%edi
    3e5e:	8d 44 24 10          	lea    0x10(%esp),%eax
    3e62:	c5 f9 7f 44 24 10    	vmovdqa %xmm0,0x10(%esp)
    3e68:	8d 74 24 1e          	lea    0x1e(%esp),%esi
    3e6c:	89 44 24 0c          	mov    %eax,0xc(%esp)
    3e70:	8b 55 00             	mov    0x0(%ebp),%edx
    3e73:	0f bf 06             	movswl (%esi),%eax
    3e76:	83 ec 08             	sub    $0x8,%esp
    3e79:	8b 4a f4             	mov    -0xc(%edx),%ecx
    3e7c:	c7 44 0d 08 06 00 00 	movl   $0x6,0x8(%ebp,%ecx,1)
    3e83:	00 
    3e84:	50                   	push   %eax
    3e85:	55                   	push   %ebp
    3e86:	e8 b5 e3 ff ff       	call   2240 <_ZNSolsEs@plt>
    3e8b:	83 c4 0c             	add    $0xc,%esp
    3e8e:	6a 03                	push   $0x3
    3e90:	57                   	push   %edi
    3e91:	50                   	push   %eax
    3e92:	e8 49 e4 ff ff       	call   22e0 <_ZSt16__ostream_insertIcSt11char_traitsIcEERSt13basic_ostreamIT_T0_ES6_PKS3_i@plt>
    3e97:	58                   	pop    %eax
    3e98:	5a                   	pop    %edx
    3e99:	8b 55 00             	mov    0x0(%ebp),%edx
    3e9c:	0f bf 46 fe          	movswl -0x2(%esi),%eax
    3ea0:	8b 4a f4             	mov    -0xc(%edx),%ecx
    3ea3:	c7 44 0d 08 06 00 00 	movl   $0x6,0x8(%ebp,%ecx,1)
    3eaa:	00 
    3eab:	50                   	push   %eax
    3eac:	55                   	push   %ebp
    3ead:	e8 8e e3 ff ff       	call   2240 <_ZNSolsEs@plt>
    3eb2:	83 c4 0c             	add    $0xc,%esp
    3eb5:	6a 03                	push   $0x3
    3eb7:	57                   	push   %edi
    3eb8:	50                   	push   %eax
    3eb9:	e8 22 e4 ff ff       	call   22e0 <_ZSt16__ostream_insertIcSt11char_traitsIcEERSt13basic_ostreamIT_T0_ES6_PKS3_i@plt>
    3ebe:	8b 55 00             	mov    0x0(%ebp),%edx
    3ec1:	59                   	pop    %ecx
    3ec2:	58                   	pop    %eax
    3ec3:	0f bf 46 fc          	movswl -0x4(%esi),%eax
    3ec7:	8b 4a f4             	mov    -0xc(%edx),%ecx
    3eca:	c7 44 0d 08 06 00 00 	movl   $0x6,0x8(%ebp,%ecx,1)
    3ed1:	00 
    3ed2:	50                   	push   %eax
    3ed3:	55                   	push   %ebp
    3ed4:	e8 67 e3 ff ff       	call   2240 <_ZNSolsEs@plt>
    3ed9:	83 c4 0c             	add    $0xc,%esp
    3edc:	6a 03                	push   $0x3
    3ede:	57                   	push   %edi
    3edf:	50                   	push   %eax
    3ee0:	e8 fb e3 ff ff       	call   22e0 <_ZSt16__ostream_insertIcSt11char_traitsIcEERSt13basic_ostreamIT_T0_ES6_PKS3_i@plt>
    3ee5:	8b 4d 00             	mov    0x0(%ebp),%ecx
    3ee8:	8d 56 fa             	lea    -0x6(%esi),%edx
    3eeb:	83 ee 08             	sub    $0x8,%esi
    3eee:	89 54 24 18          	mov    %edx,0x18(%esp)
    3ef2:	58                   	pop    %eax
    3ef3:	5a                   	pop    %edx
    3ef4:	0f bf 56 02          	movswl 0x2(%esi),%edx
    3ef8:	8b 41 f4             	mov    -0xc(%ecx),%eax
    3efb:	c7 44 05 08 06 00 00 	movl   $0x6,0x8(%ebp,%eax,1)
    3f02:	00 
    3f03:	52                   	push   %edx
    3f04:	55                   	push   %ebp
    3f05:	e8 36 e3 ff ff       	call   2240 <_ZNSolsEs@plt>
    3f0a:	83 c4 0c             	add    $0xc,%esp
    3f0d:	6a 03                	push   $0x3
    3f0f:	57                   	push   %edi
    3f10:	50                   	push   %eax
    3f11:	e8 ca e3 ff ff       	call   22e0 <_ZSt16__ostream_insertIcSt11char_traitsIcEERSt13basic_ostreamIT_T0_ES6_PKS3_i@plt>
    3f16:	83 c4 10             	add    $0x10,%esp
    3f19:	8b 4c 24 08          	mov    0x8(%esp),%ecx
    3f1d:	39 4c 24 0c          	cmp    %ecx,0xc(%esp)
    3f21:	0f 85 49 ff ff ff    	jne    3e70 <_ZN2ez2ii16print_i128_i8x16ERSoDv2_x+0x30>
    3f27:	83 c4 2c             	add    $0x2c,%esp
    3f2a:	5b                   	pop    %ebx
    3f2b:	5e                   	pop    %esi
    3f2c:	5f                   	pop    %edi
    3f2d:	5d                   	pop    %ebp
    3f2e:	c3                   	ret
    3f2f:	90                   	nop

00003f30 <_ZN2ez2ii16print_i128_i4x32ERSoDv2_x>:
    3f30:	55                   	push   %ebp
    3f31:	57                   	push   %edi
    3f32:	56                   	push   %esi
    3f33:	53                   	push   %ebx
    3f34:	e8 f7 f8 ff ff       	call   3830 <__x86.get_pc_thunk.bx>
    3f39:	81 c3 83 af 00 00    	add    $0xaf83,%ebx
    3f3f:	83 ec 2c             	sub    $0x2c,%esp
    3f42:	8b ab 24 01 00 00    	mov    0x124(%ebx),%ebp
    3f48:	8d bb 7f c1 ff ff    	lea    -0x3e81(%ebx),%edi
    3f4e:	89 e0                	mov    %esp,%eax
    3f50:	c5 f9 7f 44 24 10    	vmovdqa %xmm0,0x10(%esp)
    3f56:	8d 74 24 10          	lea    0x10(%esp),%esi
    3f5a:	89 44 24 0c          	mov    %eax,0xc(%esp)
    3f5e:	8b 55 00             	mov    0x0(%ebp),%edx
    3f61:	83 ec 08             	sub    $0x8,%esp
    3f64:	83 ee 04             	sub    $0x4,%esi
    3f67:	8b 4a f4             	mov    -0xc(%edx),%ecx
    3f6a:	c7 44 0d 08 0a 00 00 	movl   $0xa,0x8(%ebp,%ecx,1)
    3f71:	00 
    3f72:	ff 76 10             	push   0x10(%esi)
    3f75:	55                   	push   %ebp
    3f76:	e8 45 e4 ff ff       	call   23c0 <_ZNSolsEi@plt>
    3f7b:	83 c4 0c             	add    $0xc,%esp
    3f7e:	6a 03                	push   $0x3
    3f80:	57                   	push   %edi
    3f81:	50                   	push   %eax
    3f82:	e8 59 e3 ff ff       	call   22e0 <_ZSt16__ostream_insertIcSt11char_traitsIcEERSt13basic_ostreamIT_T0_ES6_PKS3_i@plt>
    3f87:	83 c4 10             	add    $0x10,%esp
    3f8a:	39 74 24 0c          	cmp    %esi,0xc(%esp)
    3f8e:	75 ce                	jne    3f5e <_ZN2ez2ii16print_i128_i4x32ERSoDv2_x+0x2e>
    3f90:	83 c4 2c             	add    $0x2c,%esp
    3f93:	5b                   	pop    %ebx
    3f94:	5e                   	pop    %esi
    3f95:	5f                   	pop    %edi
    3f96:	5d                   	pop    %ebp
    3f97:	c3                   	ret
    3f98:	2e 8d b4 26 00 00 00 	lea    %cs:0x0(%esi,%eiz,1),%esi
    3f9f:	00 

00003fa0 <_ZN2ez2ii16print_i128_i2x64ERSoDv2_x>:
    3fa0:	57                   	push   %edi
    3fa1:	56                   	push   %esi
    3fa2:	53                   	push   %ebx
    3fa3:	c5 f1 73 d8 08       	vpsrldq $0x8,%xmm0,%xmm1
    3fa8:	e8 83 f8 ff ff       	call   3830 <__x86.get_pc_thunk.bx>
    3fad:	81 c3 0f af 00 00    	add    $0xaf0f,%ebx
    3fb3:	83 ec 24             	sub    $0x24,%esp
    3fb6:	8b b3 24 01 00 00    	mov    0x124(%ebx),%esi
    3fbc:	8d bb 7f c1 ff ff    	lea    -0x3e81(%ebx),%edi
    3fc2:	c5 f9 7f 4c 24 04    	vmovdqa %xmm1,0x4(%esp)
    3fc8:	c5 f9 7f 44 24 14    	vmovdqa %xmm0,0x14(%esp)
    3fce:	8b 06                	mov    (%esi),%eax
    3fd0:	8b 50 f4             	mov    -0xc(%eax),%edx
    3fd3:	c7 44 32 08 0a 00 00 	movl   $0xa,0x8(%edx,%esi,1)
    3fda:	00 
    3fdb:	ff 74 24 08          	push   0x8(%esp)
    3fdf:	ff 74 24 08          	push   0x8(%esp)
    3fe3:	56                   	push   %esi
    3fe4:	e8 e7 e0 ff ff       	call   20d0 <_ZNSo9_M_insertIxEERSoT_@plt>
    3fe9:	83 c4 0c             	add    $0xc,%esp
    3fec:	6a 03                	push   $0x3
    3fee:	57                   	push   %edi
    3fef:	50                   	push   %eax
    3ff0:	e8 eb e2 ff ff       	call   22e0 <_ZSt16__ostream_insertIcSt11char_traitsIcEERSt13basic_ostreamIT_T0_ES6_PKS3_i@plt>
    3ff5:	8b 0e                	mov    (%esi),%ecx
    3ff7:	c5 f9 6f 44 24 20    	vmovdqa 0x20(%esp),%xmm0
    3ffd:	83 c4 0c             	add    $0xc,%esp
    4000:	8b 41 f4             	mov    -0xc(%ecx),%eax
    4003:	c5 f9 7f 44 24 04    	vmovdqa %xmm0,0x4(%esp)
    4009:	c7 44 30 08 0a 00 00 	movl   $0xa,0x8(%eax,%esi,1)
    4010:	00 
    4011:	ff 74 24 08          	push   0x8(%esp)
    4015:	ff 74 24 08          	push   0x8(%esp)
    4019:	56                   	push   %esi
    401a:	e8 b1 e0 ff ff       	call   20d0 <_ZNSo9_M_insertIxEERSoT_@plt>
    401f:	83 c4 0c             	add    $0xc,%esp
    4022:	6a 03                	push   $0x3
    4024:	57                   	push   %edi
    4025:	50                   	push   %eax
    4026:	e8 b5 e2 ff ff       	call   22e0 <_ZSt16__ostream_insertIcSt11char_traitsIcEERSt13basic_ostreamIT_T0_ES6_PKS3_i@plt>
    402b:	83 c4 30             	add    $0x30,%esp
    402e:	5b                   	pop    %ebx
    402f:	5e                   	pop    %esi
    4030:	5f                   	pop    %edi
    4031:	c3                   	ret
    4032:	2e 8d b4 26 00 00 00 	lea    %cs:0x0(%esi,%eiz,1),%esi
    4039:	00 
    403a:	8d b6 00 00 00 00    	lea    0x0(%esi),%esi

00004040 <_ZN2ez2ii10print_i128ERSoDv2_x>:
    4040:	55                   	push   %ebp
    4041:	57                   	push   %edi
    4042:	56                   	push   %esi
    4043:	53                   	push   %ebx
    4044:	e8 e7 f7 ff ff       	call   3830 <__x86.get_pc_thunk.bx>
    4049:	81 c3 73 ae 00 00    	add    $0xae73,%ebx
    404f:	83 ec 4c             	sub    $0x4c,%esp
    4052:	65 a1 14 00 00 00    	mov    %gs:0x14,%eax
    4058:	89 44 24 3c          	mov    %eax,0x3c(%esp)
    405c:	8b 83 50 01 00 00    	mov    0x150(%ebx),%eax
    4062:	83 c0 04             	add    $0x4,%eax
    4065:	83 f8 08             	cmp    $0x8,%eax
    4068:	0f 87 92 00 00 00    	ja     4100 <.L43>
    406e:	8b 84 83 98 c5 ff ff 	mov    -0x3a68(%ebx,%eax,4),%eax
    4075:	01 d8                	add    %ebx,%eax
    4077:	ff e0                	jmp    *%eax
    4079:	8d b4 26 00 00 00 00 	lea    0x0(%esi,%eiz,1),%esi

00004080 <.L45>:
    4080:	8b b3 24 01 00 00    	mov    0x124(%ebx),%esi
    4086:	83 ec 04             	sub    $0x4,%esp
    4089:	c5 f1 73 d8 08       	vpsrldq $0x8,%xmm0,%xmm1
    408e:	8d bb 7f c1 ff ff    	lea    -0x3e81(%ebx),%edi
    4094:	c5 f9 7f 44 24 14    	vmovdqa %xmm0,0x14(%esp)
    409a:	c5 f9 7f 4c 24 04    	vmovdqa %xmm1,0x4(%esp)
    40a0:	8b 16                	mov    (%esi),%edx
    40a2:	8b 4a f4             	mov    -0xc(%edx),%ecx
    40a5:	c7 44 31 08 0a 00 00 	movl   $0xa,0x8(%ecx,%esi,1)
    40ac:	00 
    40ad:	ff 74 24 08          	push   0x8(%esp)
    40b1:	ff 74 24 08          	push   0x8(%esp)
    40b5:	56                   	push   %esi
    40b6:	e8 b5 e0 ff ff       	call   2170 <_ZNSo9_M_insertIyEERSoT_@plt>
    40bb:	83 c4 0c             	add    $0xc,%esp
    40be:	6a 03                	push   $0x3
    40c0:	57                   	push   %edi
    40c1:	50                   	push   %eax
    40c2:	e8 19 e2 ff ff       	call   22e0 <_ZSt16__ostream_insertIcSt11char_traitsIcEERSt13basic_ostreamIT_T0_ES6_PKS3_i@plt>
    40c7:	8b 2e                	mov    (%esi),%ebp
    40c9:	c5 f9 6f 44 24 20    	vmovdqa 0x20(%esp),%xmm0
    40cf:	83 c4 0c             	add    $0xc,%esp
    40d2:	8b 45 f4             	mov    -0xc(%ebp),%eax
    40d5:	c5 f9 7f 44 24 04    	vmovdqa %xmm0,0x4(%esp)
    40db:	c7 44 30 08 0a 00 00 	movl   $0xa,0x8(%eax,%esi,1)
    40e2:	00 
    40e3:	ff 74 24 08          	push   0x8(%esp)
    40e7:	ff 74 24 08          	push   0x8(%esp)
    40eb:	56                   	push   %esi
    40ec:	e8 7f e0 ff ff       	call   2170 <_ZNSo9_M_insertIyEERSoT_@plt>
    40f1:	83 c4 0c             	add    $0xc,%esp
    40f4:	6a 03                	push   $0x3
    40f6:	57                   	push   %edi
    40f7:	50                   	push   %eax
    40f8:	e8 e3 e1 ff ff       	call   22e0 <_ZSt16__ostream_insertIcSt11char_traitsIcEERSt13basic_ostreamIT_T0_ES6_PKS3_i@plt>
    40fd:	83 c4 10             	add    $0x10,%esp

00004100 <.L43>:
    4100:	8b 44 24 3c          	mov    0x3c(%esp),%eax
    4104:	65 2b 05 14 00 00 00 	sub    %gs:0x14,%eax
    410b:	0f 85 ab 04 00 00    	jne    45bc <.L47+0x4c>
    4111:	83 c4 4c             	add    $0x4c,%esp
    4114:	5b                   	pop    %ebx
    4115:	5e                   	pop    %esi
    4116:	5f                   	pop    %edi
    4117:	5d                   	pop    %ebp
    4118:	c3                   	ret
    4119:	8d b4 26 00 00 00 00 	lea    0x0(%esi,%eiz,1),%esi

00004120 <.L53>:
    4120:	8b ab 24 01 00 00    	mov    0x124(%ebx),%ebp
    4126:	83 ec 04             	sub    $0x4,%esp
    4129:	c5 e9 73 d8 08       	vpsrldq $0x8,%xmm0,%xmm2
    412e:	c5 f9 7f 44 24 14    	vmovdqa %xmm0,0x14(%esp)
    4134:	c5 f9 7f 54 24 04    	vmovdqa %xmm2,0x4(%esp)
    413a:	8b 4d 00             	mov    0x0(%ebp),%ecx
    413d:	8b 79 f4             	mov    -0xc(%ecx),%edi
    4140:	c7 44 2f 08 0a 00 00 	movl   $0xa,0x8(%edi,%ebp,1)
    4147:	00 
    4148:	ff 74 24 08          	push   0x8(%esp)
    414c:	ff 74 24 08          	push   0x8(%esp)
    4150:	55                   	push   %ebp
    4151:	8d bb 7f c1 ff ff    	lea    -0x3e81(%ebx),%edi
    4157:	e8 74 df ff ff       	call   20d0 <_ZNSo9_M_insertIxEERSoT_@plt>
    415c:	83 c4 0c             	add    $0xc,%esp
    415f:	6a 03                	push   $0x3
    4161:	57                   	push   %edi
    4162:	50                   	push   %eax
    4163:	e8 78 e1 ff ff       	call   22e0 <_ZSt16__ostream_insertIcSt11char_traitsIcEERSt13basic_ostreamIT_T0_ES6_PKS3_i@plt>
    4168:	8b 75 00             	mov    0x0(%ebp),%esi
    416b:	c5 f9 6f 5c 24 20    	vmovdqa 0x20(%esp),%xmm3
    4171:	83 c4 0c             	add    $0xc,%esp
    4174:	8b 46 f4             	mov    -0xc(%esi),%eax
    4177:	c5 f9 7f 5c 24 04    	vmovdqa %xmm3,0x4(%esp)
    417d:	c7 44 28 08 0a 00 00 	movl   $0xa,0x8(%eax,%ebp,1)
    4184:	00 
    4185:	ff 74 24 08          	push   0x8(%esp)
    4189:	ff 74 24 08          	push   0x8(%esp)
    418d:	55                   	push   %ebp
    418e:	e8 3d df ff ff       	call   20d0 <_ZNSo9_M_insertIxEERSoT_@plt>
    4193:	e9 59 ff ff ff       	jmp    40f1 <.L45+0x71>
    4198:	2e 8d b4 26 00 00 00 	lea    %cs:0x0(%esi,%eiz,1),%esi
    419f:	00 

000041a0 <.L52>:
    41a0:	8b bb 24 01 00 00    	mov    0x124(%ebx),%edi
    41a6:	8d 74 24 10          	lea    0x10(%esp),%esi
    41aa:	8d 6c 24 20          	lea    0x20(%esp),%ebp
    41ae:	89 34 24             	mov    %esi,(%esp)
    41b1:	8d b3 7f c1 ff ff    	lea    -0x3e81(%ebx),%esi
    41b7:	8b 07                	mov    (%edi),%eax
    41b9:	83 ec 08             	sub    $0x8,%esp
    41bc:	83 ed 04             	sub    $0x4,%ebp
    41bf:	8b 50 f4             	mov    -0xc(%eax),%edx
    41c2:	c7 44 17 08 0a 00 00 	movl   $0xa,0x8(%edi,%edx,1)
    41c9:	00 
    41ca:	ff 75 10             	push   0x10(%ebp)
    41cd:	57                   	push   %edi
    41ce:	e8 ed e1 ff ff       	call   23c0 <_ZNSolsEi@plt>
    41d3:	83 c4 0c             	add    $0xc,%esp
    41d6:	6a 03                	push   $0x3
    41d8:	56                   	push   %esi
    41d9:	50                   	push   %eax
    41da:	e8 01 e1 ff ff       	call   22e0 <_ZSt16__ostream_insertIcSt11char_traitsIcEERSt13basic_ostreamIT_T0_ES6_PKS3_i@plt>
    41df:	83 c4 10             	add    $0x10,%esp
    41e2:	39 2c 24             	cmp    %ebp,(%esp)
    41e5:	75 d0                	jne    41b7 <.L52+0x17>
    41e7:	e9 14 ff ff ff       	jmp    4100 <.L43>
    41ec:	8d 74 26 00          	lea    0x0(%esi,%eiz,1),%esi

000041f0 <.L51>:
    41f0:	8b ab 24 01 00 00    	mov    0x124(%ebx),%ebp
    41f6:	8d 74 24 20          	lea    0x20(%esp),%esi
    41fa:	8d bb 7f c1 ff ff    	lea    -0x3e81(%ebx),%edi
    4200:	89 74 24 10          	mov    %esi,0x10(%esp)
    4204:	8d 74 24 2e          	lea    0x2e(%esp),%esi
    4208:	8b 55 00             	mov    0x0(%ebp),%edx
    420b:	0f bf 06             	movswl (%esi),%eax
    420e:	83 ec 08             	sub    $0x8,%esp
    4211:	8b 4a f4             	mov    -0xc(%edx),%ecx
    4214:	c7 44 0d 08 06 00 00 	movl   $0x6,0x8(%ebp,%ecx,1)
    421b:	00 
    421c:	50                   	push   %eax
    421d:	55                   	push   %ebp
    421e:	e8 1d e0 ff ff       	call   2240 <_ZNSolsEs@plt>
    4223:	83 c4 0c             	add    $0xc,%esp
    4226:	6a 03                	push   $0x3
    4228:	57                   	push   %edi
    4229:	50                   	push   %eax
    422a:	e8 b1 e0 ff ff       	call   22e0 <_ZSt16__ostream_insertIcSt11char_traitsIcEERSt13basic_ostreamIT_T0_ES6_PKS3_i@plt>
    422f:	58                   	pop    %eax
    4230:	5a                   	pop    %edx
    4231:	8b 55 00             	mov    0x0(%ebp),%edx
    4234:	0f bf 46 fe          	movswl -0x2(%esi),%eax
    4238:	8b 4a f4             	mov    -0xc(%edx),%ecx
    423b:	c7 44 0d 08 06 00 00 	movl   $0x6,0x8(%ebp,%ecx,1)
    4242:	00 
    4243:	50                   	push   %eax
    4244:	55                   	push   %ebp
    4245:	e8 f6 df ff ff       	call   2240 <_ZNSolsEs@plt>
    424a:	83 c4 0c             	add    $0xc,%esp
    424d:	6a 03                	push   $0x3
    424f:	57                   	push   %edi
    4250:	50                   	push   %eax
    4251:	e8 8a e0 ff ff       	call   22e0 <_ZSt16__ostream_insertIcSt11char_traitsIcEERSt13basic_ostreamIT_T0_ES6_PKS3_i@plt>
    4256:	8b 55 00             	mov    0x0(%ebp),%edx
    4259:	59                   	pop    %ecx
    425a:	58                   	pop    %eax
    425b:	0f bf 46 fc          	movswl -0x4(%esi),%eax
    425f:	8b 4a f4             	mov    -0xc(%edx),%ecx
    4262:	c7 44 0d 08 06 00 00 	movl   $0x6,0x8(%ebp,%ecx,1)
    4269:	00 
    426a:	50                   	push   %eax
    426b:	55                   	push   %ebp
    426c:	e8 cf df ff ff       	call   2240 <_ZNSolsEs@plt>
    4271:	83 c4 0c             	add    $0xc,%esp
    4274:	6a 03                	push   $0x3
    4276:	57                   	push   %edi
    4277:	50                   	push   %eax
    4278:	e8 63 e0 ff ff       	call   22e0 <_ZSt16__ostream_insertIcSt11char_traitsIcEERSt13basic_ostreamIT_T0_ES6_PKS3_i@plt>
    427d:	8b 4d 00             	mov    0x0(%ebp),%ecx
    4280:	8d 56 fa             	lea    -0x6(%esi),%edx
    4283:	83 ee 08             	sub    $0x8,%esi
    4286:	89 54 24 10          	mov    %edx,0x10(%esp)
    428a:	58                   	pop    %eax
    428b:	5a                   	pop    %edx
    428c:	0f bf 56 02          	movswl 0x2(%esi),%edx
    4290:	8b 41 f4             	mov    -0xc(%ecx),%eax
    4293:	c7 44 05 08 06 00 00 	movl   $0x6,0x8(%ebp,%eax,1)
    429a:	00 
    429b:	52                   	push   %edx
    429c:	55                   	push   %ebp
    429d:	e8 9e df ff ff       	call   2240 <_ZNSolsEs@plt>
    42a2:	83 c4 0c             	add    $0xc,%esp
    42a5:	6a 03                	push   $0x3
    42a7:	57                   	push   %edi
    42a8:	50                   	push   %eax
    42a9:	e8 32 e0 ff ff       	call   22e0 <_ZSt16__ostream_insertIcSt11char_traitsIcEERSt13basic_ostreamIT_T0_ES6_PKS3_i@plt>
    42ae:	83 c4 10             	add    $0x10,%esp
    42b1:	8b 0c 24             	mov    (%esp),%ecx
    42b4:	39 4c 24 10          	cmp    %ecx,0x10(%esp)
    42b8:	0f 85 4a ff ff ff    	jne    4208 <.L51+0x18>
    42be:	e9 3d fe ff ff       	jmp    4100 <.L43>
    42c3:	2e 8d b4 26 00 00 00 	lea    %cs:0x0(%esi,%eiz,1),%esi
    42ca:	00 
    42cb:	2e 8d 74 26 00       	lea    %cs:0x0(%esi,%eiz,1),%esi

000042d0 <.L50>:
    42d0:	8b ab 24 01 00 00    	mov    0x124(%ebx),%ebp
    42d6:	8d 74 24 20          	lea    0x20(%esp),%esi
    42da:	c5 f9 7f 44 24 20    	vmovdqa %xmm0,0x20(%esp)
    42e0:	8d bb 7f c1 ff ff    	lea    -0x3e81(%ebx),%edi
    42e6:	89 74 24 10          	mov    %esi,0x10(%esp)
    42ea:	8d 74 24 2f          	lea    0x2f(%esp),%esi
    42ee:	8b 4d 00             	mov    0x0(%ebp),%ecx
    42f1:	0f be 16             	movsbl (%esi),%edx
    42f4:	83 ec 08             	sub    $0x8,%esp
    42f7:	8b 41 f4             	mov    -0xc(%ecx),%eax
    42fa:	c7 44 05 08 03 00 00 	movl   $0x3,0x8(%ebp,%eax,1)
    4301:	00 
    4302:	52                   	push   %edx
    4303:	55                   	push   %ebp
    4304:	e8 b7 e0 ff ff       	call   23c0 <_ZNSolsEi@plt>
    4309:	83 c4 0c             	add    $0xc,%esp
    430c:	6a 03                	push   $0x3
    430e:	57                   	push   %edi
    430f:	50                   	push   %eax
    4310:	e8 cb df ff ff       	call   22e0 <_ZSt16__ostream_insertIcSt11char_traitsIcEERSt13basic_ostreamIT_T0_ES6_PKS3_i@plt>
    4315:	59                   	pop    %ecx
    4316:	8b 4d 00             	mov    0x0(%ebp),%ecx
    4319:	0f be 56 ff          	movsbl -0x1(%esi),%edx
    431d:	58                   	pop    %eax
    431e:	8b 41 f4             	mov    -0xc(%ecx),%eax
    4321:	c7 44 05 08 03 00 00 	movl   $0x3,0x8(%ebp,%eax,1)
    4328:	00 
    4329:	52                   	push   %edx
    432a:	55                   	push   %ebp
    432b:	e8 90 e0 ff ff       	call   23c0 <_ZNSolsEi@plt>
    4330:	83 c4 0c             	add    $0xc,%esp
    4333:	6a 03                	push   $0x3
    4335:	57                   	push   %edi
    4336:	50                   	push   %eax
    4337:	e8 a4 df ff ff       	call   22e0 <_ZSt16__ostream_insertIcSt11char_traitsIcEERSt13basic_ostreamIT_T0_ES6_PKS3_i@plt>
    433c:	8b 4d 00             	mov    0x0(%ebp),%ecx
    433f:	58                   	pop    %eax
    4340:	5a                   	pop    %edx
    4341:	0f be 56 fe          	movsbl -0x2(%esi),%edx
    4345:	8b 41 f4             	mov    -0xc(%ecx),%eax
    4348:	c7 44 05 08 03 00 00 	movl   $0x3,0x8(%ebp,%eax,1)
    434f:	00 
    4350:	52                   	push   %edx
    4351:	55                   	push   %ebp
    4352:	e8 69 e0 ff ff       	call   23c0 <_ZNSolsEi@plt>
    4357:	83 c4 0c             	add    $0xc,%esp
    435a:	6a 03                	push   $0x3
    435c:	57                   	push   %edi
    435d:	50                   	push   %eax
    435e:	e8 7d df ff ff       	call   22e0 <_ZSt16__ostream_insertIcSt11char_traitsIcEERSt13basic_ostreamIT_T0_ES6_PKS3_i@plt>
    4363:	8d 4e fd             	lea    -0x3(%esi),%ecx
    4366:	83 ee 04             	sub    $0x4,%esi
    4369:	89 4c 24 10          	mov    %ecx,0x10(%esp)
    436d:	59                   	pop    %ecx
    436e:	58                   	pop    %eax
    436f:	8b 45 00             	mov    0x0(%ebp),%eax
    4372:	0f be 4e 01          	movsbl 0x1(%esi),%ecx
    4376:	8b 50 f4             	mov    -0xc(%eax),%edx
    4379:	c7 44 15 08 03 00 00 	movl   $0x3,0x8(%ebp,%edx,1)
    4380:	00 
    4381:	51                   	push   %ecx
    4382:	55                   	push   %ebp
    4383:	e8 38 e0 ff ff       	call   23c0 <_ZNSolsEi@plt>
    4388:	83 c4 0c             	add    $0xc,%esp
    438b:	6a 03                	push   $0x3
    438d:	57                   	push   %edi
    438e:	50                   	push   %eax
    438f:	e8 4c df ff ff       	call   22e0 <_ZSt16__ostream_insertIcSt11char_traitsIcEERSt13basic_ostreamIT_T0_ES6_PKS3_i@plt>
    4394:	83 c4 10             	add    $0x10,%esp
    4397:	8b 04 24             	mov    (%esp),%eax
    439a:	39 44 24 10          	cmp    %eax,0x10(%esp)
    439e:	0f 85 4a ff ff ff    	jne    42ee <.L50+0x1e>
    43a4:	e9 57 fd ff ff       	jmp    4100 <.L43>
    43a9:	8d b4 26 00 00 00 00 	lea    0x0(%esi,%eiz,1),%esi

000043b0 <.L49>:
    43b0:	8b ab 24 01 00 00    	mov    0x124(%ebx),%ebp
    43b6:	8d 74 24 20          	lea    0x20(%esp),%esi
    43ba:	c5 f9 7f 44 24 20    	vmovdqa %xmm0,0x20(%esp)
    43c0:	8d bb 7f c1 ff ff    	lea    -0x3e81(%ebx),%edi
    43c6:	89 74 24 10          	mov    %esi,0x10(%esp)
    43ca:	8d 74 24 2f          	lea    0x2f(%esp),%esi
    43ce:	8b 45 00             	mov    0x0(%ebp),%eax
    43d1:	0f b6 0e             	movzbl (%esi),%ecx
    43d4:	83 ec 08             	sub    $0x8,%esp
    43d7:	8b 50 f4             	mov    -0xc(%eax),%edx
    43da:	c7 44 15 08 03 00 00 	movl   $0x3,0x8(%ebp,%edx,1)
    43e1:	00 
    43e2:	51                   	push   %ecx
    43e3:	55                   	push   %ebp
    43e4:	e8 d7 df ff ff       	call   23c0 <_ZNSolsEi@plt>
    43e9:	83 c4 0c             	add    $0xc,%esp
    43ec:	6a 03                	push   $0x3
    43ee:	57                   	push   %edi
    43ef:	50                   	push   %eax
    43f0:	e8 eb de ff ff       	call   22e0 <_ZSt16__ostream_insertIcSt11char_traitsIcEERSt13basic_ostreamIT_T0_ES6_PKS3_i@plt>
    43f5:	59                   	pop    %ecx
    43f6:	58                   	pop    %eax
    43f7:	8b 45 00             	mov    0x0(%ebp),%eax
    43fa:	0f b6 4e ff          	movzbl -0x1(%esi),%ecx
    43fe:	8b 50 f4             	mov    -0xc(%eax),%edx
    4401:	c7 44 15 08 03 00 00 	movl   $0x3,0x8(%ebp,%edx,1)
    4408:	00 
    4409:	51                   	push   %ecx
    440a:	55                   	push   %ebp
    440b:	e8 b0 df ff ff       	call   23c0 <_ZNSolsEi@plt>
    4410:	83 c4 0c             	add    $0xc,%esp
    4413:	6a 03                	push   $0x3
    4415:	57                   	push   %edi
    4416:	50                   	push   %eax
    4417:	e8 c4 de ff ff       	call   22e0 <_ZSt16__ostream_insertIcSt11char_traitsIcEERSt13basic_ostreamIT_T0_ES6_PKS3_i@plt>
    441c:	58                   	pop    %eax
    441d:	8b 45 00             	mov    0x0(%ebp),%eax
    4420:	5a                   	pop    %edx
    4421:	0f b6 4e fe          	movzbl -0x2(%esi),%ecx
    4425:	8b 50 f4             	mov    -0xc(%eax),%edx
    4428:	c7 44 15 08 03 00 00 	movl   $0x3,0x8(%ebp,%edx,1)
    442f:	00 
    4430:	51                   	push   %ecx
    4431:	55                   	push   %ebp
    4432:	e8 89 df ff ff       	call   23c0 <_ZNSolsEi@plt>
    4437:	83 c4 0c             	add    $0xc,%esp
    443a:	6a 03                	push   $0x3
    443c:	57                   	push   %edi
    443d:	50                   	push   %eax
    443e:	e8 9d de ff ff       	call   22e0 <_ZSt16__ostream_insertIcSt11char_traitsIcEERSt13basic_ostreamIT_T0_ES6_PKS3_i@plt>
    4443:	8b 55 00             	mov    0x0(%ebp),%edx
    4446:	8d 46 fd             	lea    -0x3(%esi),%eax
    4449:	83 ee 04             	sub    $0x4,%esi
    444c:	89 44 24 10          	mov    %eax,0x10(%esp)
    4450:	59                   	pop    %ecx
    4451:	58                   	pop    %eax
    4452:	0f b6 46 01          	movzbl 0x1(%esi),%eax
    4456:	8b 4a f4             	mov    -0xc(%edx),%ecx
    4459:	c7 44 0d 08 03 00 00 	movl   $0x3,0x8(%ebp,%ecx,1)
    4460:	00 
    4461:	50                   	push   %eax
    4462:	55                   	push   %ebp
    4463:	e8 58 df ff ff       	call   23c0 <_ZNSolsEi@plt>
    4468:	83 c4 0c             	add    $0xc,%esp
    446b:	6a 03                	push   $0x3
    446d:	57                   	push   %edi
    446e:	50                   	push   %eax
    446f:	e8 6c de ff ff       	call   22e0 <_ZSt16__ostream_insertIcSt11char_traitsIcEERSt13basic_ostreamIT_T0_ES6_PKS3_i@plt>
    4474:	83 c4 10             	add    $0x10,%esp
    4477:	8b 14 24             	mov    (%esp),%edx
    447a:	39 54 24 10          	cmp    %edx,0x10(%esp)
    447e:	0f 85 4a ff ff ff    	jne    43ce <.L49+0x1e>
    4484:	e9 77 fc ff ff       	jmp    4100 <.L43>
    4489:	8d b4 26 00 00 00 00 	lea    0x0(%esi,%eiz,1),%esi

00004490 <.L48>:
    4490:	8b ab 24 01 00 00    	mov    0x124(%ebx),%ebp
    4496:	8d 44 24 20          	lea    0x20(%esp),%eax
    449a:	8d 74 24 2e          	lea    0x2e(%esp),%esi
    449e:	8d bb 7f c1 ff ff    	lea    -0x3e81(%ebx),%edi
    44a4:	89 44 24 10          	mov    %eax,0x10(%esp)
    44a8:	8b 55 00             	mov    0x0(%ebp),%edx
    44ab:	0f b7 06             	movzwl (%esi),%eax
    44ae:	83 ec 08             	sub    $0x8,%esp
    44b1:	8b 4a f4             	mov    -0xc(%edx),%ecx
    44b4:	c7 44 0d 08 06 00 00 	movl   $0x6,0x8(%ebp,%ecx,1)
    44bb:	00 
    44bc:	50                   	push   %eax
    44bd:	55                   	push   %ebp
    44be:	e8 bd dc ff ff       	call   2180 <_ZNSo9_M_insertImEERSoT_@plt>
    44c3:	83 c4 0c             	add    $0xc,%esp
    44c6:	6a 03                	push   $0x3
    44c8:	57                   	push   %edi
    44c9:	50                   	push   %eax
    44ca:	e8 11 de ff ff       	call   22e0 <_ZSt16__ostream_insertIcSt11char_traitsIcEERSt13basic_ostreamIT_T0_ES6_PKS3_i@plt>
    44cf:	58                   	pop    %eax
    44d0:	5a                   	pop    %edx
    44d1:	8b 55 00             	mov    0x0(%ebp),%edx
    44d4:	0f b7 46 fe          	movzwl -0x2(%esi),%eax
    44d8:	8b 4a f4             	mov    -0xc(%edx),%ecx
    44db:	c7 44 0d 08 06 00 00 	movl   $0x6,0x8(%ebp,%ecx,1)
    44e2:	00 
    44e3:	50                   	push   %eax
    44e4:	55                   	push   %ebp
    44e5:	e8 96 dc ff ff       	call   2180 <_ZNSo9_M_insertImEERSoT_@plt>
    44ea:	83 c4 0c             	add    $0xc,%esp
    44ed:	6a 03                	push   $0x3
    44ef:	57                   	push   %edi
    44f0:	50                   	push   %eax
    44f1:	e8 ea dd ff ff       	call   22e0 <_ZSt16__ostream_insertIcSt11char_traitsIcEERSt13basic_ostreamIT_T0_ES6_PKS3_i@plt>
    44f6:	8b 55 00             	mov    0x0(%ebp),%edx
    44f9:	59                   	pop    %ecx
    44fa:	58                   	pop    %eax
    44fb:	0f b7 46 fc          	movzwl -0x4(%esi),%eax
    44ff:	8b 4a f4             	mov    -0xc(%edx),%ecx
    4502:	c7 44 0d 08 06 00 00 	movl   $0x6,0x8(%ebp,%ecx,1)
    4509:	00 
    450a:	50                   	push   %eax
    450b:	55                   	push   %ebp
    450c:	e8 6f dc ff ff       	call   2180 <_ZNSo9_M_insertImEERSoT_@plt>
    4511:	83 c4 0c             	add    $0xc,%esp
    4514:	6a 03                	push   $0x3
    4516:	57                   	push   %edi
    4517:	50                   	push   %eax
    4518:	e8 c3 dd ff ff       	call   22e0 <_ZSt16__ostream_insertIcSt11char_traitsIcEERSt13basic_ostreamIT_T0_ES6_PKS3_i@plt>
    451d:	8b 4d 00             	mov    0x0(%ebp),%ecx
    4520:	8d 56 fa             	lea    -0x6(%esi),%edx
    4523:	83 ee 08             	sub    $0x8,%esi
    4526:	89 54 24 10          	mov    %edx,0x10(%esp)
    452a:	58                   	pop    %eax
    452b:	5a                   	pop    %edx
    452c:	0f b7 56 02          	movzwl 0x2(%esi),%edx
    4530:	8b 41 f4             	mov    -0xc(%ecx),%eax
    4533:	c7 44 05 08 06 00 00 	movl   $0x6,0x8(%ebp,%eax,1)
    453a:	00 
    453b:	52                   	push   %edx
    453c:	55                   	push   %ebp
    453d:	e8 3e dc ff ff       	call   2180 <_ZNSo9_M_insertImEERSoT_@plt>
    4542:	83 c4 0c             	add    $0xc,%esp
    4545:	6a 03                	push   $0x3
    4547:	57                   	push   %edi
    4548:	50                   	push   %eax
    4549:	e8 92 dd ff ff       	call   22e0 <_ZSt16__ostream_insertIcSt11char_traitsIcEERSt13basic_ostreamIT_T0_ES6_PKS3_i@plt>
    454e:	83 c4 10             	add    $0x10,%esp
    4551:	8b 0c 24             	mov    (%esp),%ecx
    4554:	39 4c 24 10          	cmp    %ecx,0x10(%esp)
    4558:	0f 85 4a ff ff ff    	jne    44a8 <.L48+0x18>
    455e:	e9 9d fb ff ff       	jmp    4100 <.L43>
    4563:	2e 8d b4 26 00 00 00 	lea    %cs:0x0(%esi,%eiz,1),%esi
    456a:	00 
    456b:	2e 8d 74 26 00       	lea    %cs:0x0(%esi,%eiz,1),%esi

00004570 <.L47>:
    4570:	8d 7c 24 10          	lea    0x10(%esp),%edi
    4574:	8d 6c 24 20          	lea    0x20(%esp),%ebp
    4578:	8d b3 7f c1 ff ff    	lea    -0x3e81(%ebx),%esi
    457e:	89 3c 24             	mov    %edi,(%esp)
    4581:	8b bb 24 01 00 00    	mov    0x124(%ebx),%edi
    4587:	8b 17                	mov    (%edi),%edx
    4589:	83 ec 08             	sub    $0x8,%esp
    458c:	83 ed 04             	sub    $0x4,%ebp
    458f:	8b 4a f4             	mov    -0xc(%edx),%ecx
    4592:	c7 44 0f 08 0a 00 00 	movl   $0xa,0x8(%edi,%ecx,1)
    4599:	00 
    459a:	ff 75 10             	push   0x10(%ebp)
    459d:	57                   	push   %edi
    459e:	e8 dd db ff ff       	call   2180 <_ZNSo9_M_insertImEERSoT_@plt>
    45a3:	83 c4 0c             	add    $0xc,%esp
    45a6:	6a 03                	push   $0x3
    45a8:	56                   	push   %esi
    45a9:	50                   	push   %eax
    45aa:	e8 31 dd ff ff       	call   22e0 <_ZSt16__ostream_insertIcSt11char_traitsIcEERSt13basic_ostreamIT_T0_ES6_PKS3_i@plt>
    45af:	83 c4 10             	add    $0x10,%esp
    45b2:	39 2c 24             	cmp    %ebp,(%esp)
    45b5:	75 d0                	jne    4587 <.L47+0x17>
    45b7:	e9 44 fb ff ff       	jmp    4100 <.L43>
    45bc:	e8 df 63 00 00       	call   a9a0 <__stack_chk_fail_local>
    45c1:	2e 8d b4 26 00 00 00 	lea    %cs:0x0(%esi,%eiz,1),%esi
    45c8:	00 
    45c9:	8d b4 26 00 00 00 00 	lea    0x0(%esi,%eiz,1),%esi

000045d0 <_ZN2ez2ii10print_f128ERSoDv4_f>:
    45d0:	55                   	push   %ebp
    45d1:	57                   	push   %edi
    45d2:	56                   	push   %esi
    45d3:	53                   	push   %ebx
    45d4:	e8 57 f2 ff ff       	call   3830 <__x86.get_pc_thunk.bx>
    45d9:	81 c3 e3 a8 00 00    	add    $0xa8e3,%ebx
    45df:	83 ec 2c             	sub    $0x2c,%esp
    45e2:	8b ab 24 01 00 00    	mov    0x124(%ebx),%ebp
    45e8:	8d bb 7f c1 ff ff    	lea    -0x3e81(%ebx),%edi
    45ee:	89 e0                	mov    %esp,%eax
    45f0:	c5 f8 29 44 24 10    	vmovaps %xmm0,0x10(%esp)
    45f6:	8d 74 24 10          	lea    0x10(%esp),%esi
    45fa:	89 44 24 0c          	mov    %eax,0xc(%esp)
    45fe:	8b 55 00             	mov    0x0(%ebp),%edx
    4601:	83 ec 0c             	sub    $0xc,%esp
    4604:	d9 46 0c             	flds   0xc(%esi)
    4607:	83 ee 04             	sub    $0x4,%esi
    460a:	8b 4a f4             	mov    -0xc(%edx),%ecx
    460d:	01 e9                	add    %ebp,%ecx
    460f:	8b 41 0c             	mov    0xc(%ecx),%eax
    4612:	25 fb fe ff ff       	and    $0xfffffefb,%eax
    4617:	83 c8 04             	or     $0x4,%eax
    461a:	89 41 0c             	mov    %eax,0xc(%ecx)
    461d:	dd 1c 24             	fstpl  (%esp)
    4620:	55                   	push   %ebp
    4621:	e8 3a dd ff ff       	call   2360 <_ZNSo9_M_insertIdEERSoT_@plt>
    4626:	83 c4 0c             	add    $0xc,%esp
    4629:	6a 03                	push   $0x3
    462b:	57                   	push   %edi
    462c:	50                   	push   %eax
    462d:	e8 ae dc ff ff       	call   22e0 <_ZSt16__ostream_insertIcSt11char_traitsIcEERSt13basic_ostreamIT_T0_ES6_PKS3_i@plt>
    4632:	83 c4 10             	add    $0x10,%esp
    4635:	39 74 24 0c          	cmp    %esi,0xc(%esp)
    4639:	75 c3                	jne    45fe <_ZN2ez2ii10print_f128ERSoDv4_f+0x2e>
    463b:	83 c4 2c             	add    $0x2c,%esp
    463e:	5b                   	pop    %ebx
    463f:	5e                   	pop    %esi
    4640:	5f                   	pop    %edi
    4641:	5d                   	pop    %ebp
    4642:	c3                   	ret
    4643:	2e 8d b4 26 00 00 00 	lea    %cs:0x0(%esi,%eiz,1),%esi
    464a:	00 
    464b:	2e 8d 74 26 00       	lea    %cs:0x0(%esi,%eiz,1),%esi

00004650 <_ZN2ez2ii10print_d128ERSoDv2_d>:
    4650:	57                   	push   %edi
    4651:	56                   	push   %esi
    4652:	53                   	push   %ebx
    4653:	c5 f9 15 c8          	vunpckhpd %xmm0,%xmm0,%xmm1
    4657:	e8 d4 f1 ff ff       	call   3830 <__x86.get_pc_thunk.bx>
    465c:	81 c3 60 a8 00 00    	add    $0xa860,%ebx
    4662:	83 ec 1c             	sub    $0x1c,%esp
    4665:	8b b3 24 01 00 00    	mov    0x124(%ebx),%esi
    466b:	8d bb 7f c1 ff ff    	lea    -0x3e81(%ebx),%edi
    4671:	c5 f9 29 44 24 0c    	vmovapd %xmm0,0xc(%esp)
    4677:	8b 06                	mov    (%esi),%eax
    4679:	8b 50 f4             	mov    -0xc(%eax),%edx
    467c:	01 f2                	add    %esi,%edx
    467e:	8b 4a 0c             	mov    0xc(%edx),%ecx
    4681:	81 e1 fb fe ff ff    	and    $0xfffffefb,%ecx
    4687:	83 c9 04             	or     $0x4,%ecx
    468a:	89 4a 0c             	mov    %ecx,0xc(%edx)
    468d:	c5 fb 11 0c 24       	vmovsd %xmm1,(%esp)
    4692:	56                   	push   %esi
    4693:	e8 c8 dc ff ff       	call   2360 <_ZNSo9_M_insertIdEERSoT_@plt>
    4698:	83 c4 0c             	add    $0xc,%esp
    469b:	6a 03                	push   $0x3
    469d:	57                   	push   %edi
    469e:	50                   	push   %eax
    469f:	e8 3c dc ff ff       	call   22e0 <_ZSt16__ostream_insertIcSt11char_traitsIcEERSt13basic_ostreamIT_T0_ES6_PKS3_i@plt>
    46a4:	8b 06                	mov    (%esi),%eax
    46a6:	c5 f9 28 44 24 10    	vmovapd 0x10(%esp),%xmm0
    46ac:	8b 50 f4             	mov    -0xc(%eax),%edx
    46af:	01 f2                	add    %esi,%edx
    46b1:	8b 4a 0c             	mov    0xc(%edx),%ecx
    46b4:	81 e1 fb fe ff ff    	and    $0xfffffefb,%ecx
    46ba:	83 c9 04             	or     $0x4,%ecx
    46bd:	89 4a 0c             	mov    %ecx,0xc(%edx)
    46c0:	c5 fb 11 44 24 04    	vmovsd %xmm0,0x4(%esp)
    46c6:	89 34 24             	mov    %esi,(%esp)
    46c9:	e8 92 dc ff ff       	call   2360 <_ZNSo9_M_insertIdEERSoT_@plt>
    46ce:	83 c4 0c             	add    $0xc,%esp
    46d1:	6a 03                	push   $0x3
    46d3:	57                   	push   %edi
    46d4:	50                   	push   %eax
    46d5:	e8 06 dc ff ff       	call   22e0 <_ZSt16__ostream_insertIcSt11char_traitsIcEERSt13basic_ostreamIT_T0_ES6_PKS3_i@plt>
    46da:	83 c4 20             	add    $0x20,%esp
    46dd:	5b                   	pop    %ebx
    46de:	5e                   	pop    %esi
    46df:	5f                   	pop    %edi
    46e0:	c3                   	ret
    46e1:	2e 8d b4 26 00 00 00 	lea    %cs:0x0(%esi,%eiz,1),%esi
    46e8:	00 
    46e9:	8d b4 26 00 00 00 00 	lea    0x0(%esi,%eiz,1),%esi

000046f0 <_ZN2ez2ii16print_i256_u32x8ERSoDv4_x>:
    46f0:	8d 4c 24 04          	lea    0x4(%esp),%ecx
    46f4:	83 e4 e0             	and    $0xffffffe0,%esp
    46f7:	ff 71 fc             	push   -0x4(%ecx)
    46fa:	55                   	push   %ebp
    46fb:	89 e5                	mov    %esp,%ebp
    46fd:	57                   	push   %edi
    46fe:	56                   	push   %esi
    46ff:	53                   	push   %ebx
    4700:	e8 2b f1 ff ff       	call   3830 <__x86.get_pc_thunk.bx>
    4705:	81 c3 b7 a7 00 00    	add    $0xa7b7,%ebx
    470b:	51                   	push   %ecx
    470c:	8d 45 c8             	lea    -0x38(%ebp),%eax
    470f:	8d 93 7f c1 ff ff    	lea    -0x3e81(%ebx),%edx
    4715:	8d 75 e7             	lea    -0x19(%ebp),%esi
    4718:	83 ec 48             	sub    $0x48,%esp
    471b:	c5 fd 7f 45 c8       	vmovdqa %ymm0,-0x38(%ebp)
    4720:	8b bb 24 01 00 00    	mov    0x124(%ebx),%edi
    4726:	89 45 bc             	mov    %eax,-0x44(%ebp)
    4729:	89 55 c4             	mov    %edx,-0x3c(%ebp)
    472c:	c5 f8 77             	vzeroupper
    472f:	90                   	nop
    4730:	8b 0f                	mov    (%edi),%ecx
    4732:	0f b6 16             	movzbl (%esi),%edx
    4735:	83 ec 08             	sub    $0x8,%esp
    4738:	8b 41 f4             	mov    -0xc(%ecx),%eax
    473b:	c7 44 07 08 03 00 00 	movl   $0x3,0x8(%edi,%eax,1)
    4742:	00 
    4743:	52                   	push   %edx
    4744:	57                   	push   %edi
    4745:	e8 76 dc ff ff       	call   23c0 <_ZNSolsEi@plt>
    474a:	83 c4 0c             	add    $0xc,%esp
    474d:	6a 03                	push   $0x3
    474f:	ff 75 c4             	push   -0x3c(%ebp)
    4752:	50                   	push   %eax
    4753:	e8 88 db ff ff       	call   22e0 <_ZSt16__ostream_insertIcSt11char_traitsIcEERSt13basic_ostreamIT_T0_ES6_PKS3_i@plt>
    4758:	8b 0f                	mov    (%edi),%ecx
    475a:	58                   	pop    %eax
    475b:	5a                   	pop    %edx
    475c:	0f b6 56 ff          	movzbl -0x1(%esi),%edx
    4760:	8b 41 f4             	mov    -0xc(%ecx),%eax
    4763:	c7 44 07 08 03 00 00 	movl   $0x3,0x8(%edi,%eax,1)
    476a:	00 
    476b:	52                   	push   %edx
    476c:	57                   	push   %edi
    476d:	e8 4e dc ff ff       	call   23c0 <_ZNSolsEi@plt>
    4772:	83 c4 0c             	add    $0xc,%esp
    4775:	6a 03                	push   $0x3
    4777:	ff 75 c4             	push   -0x3c(%ebp)
    477a:	50                   	push   %eax
    477b:	e8 60 db ff ff       	call   22e0 <_ZSt16__ostream_insertIcSt11char_traitsIcEERSt13basic_ostreamIT_T0_ES6_PKS3_i@plt>
    4780:	59                   	pop    %ecx
    4781:	8b 0f                	mov    (%edi),%ecx
    4783:	0f b6 56 fe          	movzbl -0x2(%esi),%edx
    4787:	58                   	pop    %eax
    4788:	8b 41 f4             	mov    -0xc(%ecx),%eax
    478b:	c7 44 07 08 03 00 00 	movl   $0x3,0x8(%edi,%eax,1)
    4792:	00 
    4793:	52                   	push   %edx
    4794:	57                   	push   %edi
    4795:	e8 26 dc ff ff       	call   23c0 <_ZNSolsEi@plt>
    479a:	83 c4 0c             	add    $0xc,%esp
    479d:	6a 03                	push   $0x3
    479f:	ff 75 c4             	push   -0x3c(%ebp)
    47a2:	50                   	push   %eax
    47a3:	e8 38 db ff ff       	call   22e0 <_ZSt16__ostream_insertIcSt11char_traitsIcEERSt13basic_ostreamIT_T0_ES6_PKS3_i@plt>
    47a8:	8d 4e fd             	lea    -0x3(%esi),%ecx
    47ab:	83 ee 04             	sub    $0x4,%esi
    47ae:	89 4d c0             	mov    %ecx,-0x40(%ebp)
    47b1:	58                   	pop    %eax
    47b2:	8b 07                	mov    (%edi),%eax
    47b4:	5a                   	pop    %edx
    47b5:	0f b6 4e 01          	movzbl 0x1(%esi),%ecx
    47b9:	8b 50 f4             	mov    -0xc(%eax),%edx
    47bc:	c7 44 17 08 03 00 00 	movl   $0x3,0x8(%edi,%edx,1)
    47c3:	00 
    47c4:	51                   	push   %ecx
    47c5:	57                   	push   %edi
    47c6:	e8 f5 db ff ff       	call   23c0 <_ZNSolsEi@plt>
    47cb:	83 c4 0c             	add    $0xc,%esp
    47ce:	6a 03                	push   $0x3
    47d0:	ff 75 c4             	push   -0x3c(%ebp)
    47d3:	50                   	push   %eax
    47d4:	e8 07 db ff ff       	call   22e0 <_ZSt16__ostream_insertIcSt11char_traitsIcEERSt13basic_ostreamIT_T0_ES6_PKS3_i@plt>
    47d9:	8b 45 c0             	mov    -0x40(%ebp),%eax
    47dc:	83 c4 10             	add    $0x10,%esp
    47df:	39 45 bc             	cmp    %eax,-0x44(%ebp)
    47e2:	0f 85 48 ff ff ff    	jne    4730 <_ZN2ez2ii16print_i256_u32x8ERSoDv4_x+0x40>
    47e8:	8d 65 f0             	lea    -0x10(%ebp),%esp
    47eb:	59                   	pop    %ecx
    47ec:	5b                   	pop    %ebx
    47ed:	5e                   	pop    %esi
    47ee:	5f                   	pop    %edi
    47ef:	5d                   	pop    %ebp
    47f0:	8d 61 fc             	lea    -0x4(%ecx),%esp
    47f3:	c3                   	ret
    47f4:	2e 8d b4 26 00 00 00 	lea    %cs:0x0(%esi,%eiz,1),%esi
    47fb:	00 
    47fc:	8d 74 26 00          	lea    0x0(%esi,%eiz,1),%esi

00004800 <_ZN2ez2ii17print_i256_u16x16ERSoDv4_x>:
    4800:	8d 4c 24 04          	lea    0x4(%esp),%ecx
    4804:	83 e4 e0             	and    $0xffffffe0,%esp
    4807:	ff 71 fc             	push   -0x4(%ecx)
    480a:	55                   	push   %ebp
    480b:	89 e5                	mov    %esp,%ebp
    480d:	57                   	push   %edi
    480e:	56                   	push   %esi
    480f:	53                   	push   %ebx
    4810:	e8 1b f0 ff ff       	call   3830 <__x86.get_pc_thunk.bx>
    4815:	81 c3 a7 a6 00 00    	add    $0xa6a7,%ebx
    481b:	51                   	push   %ecx
    481c:	8d 45 c8             	lea    -0x38(%ebp),%eax
    481f:	8d 93 7f c1 ff ff    	lea    -0x3e81(%ebx),%edx
    4825:	8d 75 e6             	lea    -0x1a(%ebp),%esi
    4828:	83 ec 48             	sub    $0x48,%esp
    482b:	c5 fd 7f 45 c8       	vmovdqa %ymm0,-0x38(%ebp)
    4830:	8b bb 24 01 00 00    	mov    0x124(%ebx),%edi
    4836:	89 45 bc             	mov    %eax,-0x44(%ebp)
    4839:	89 55 c4             	mov    %edx,-0x3c(%ebp)
    483c:	c5 f8 77             	vzeroupper
    483f:	8b 0f                	mov    (%edi),%ecx
    4841:	0f b7 16             	movzwl (%esi),%edx
    4844:	83 ec 08             	sub    $0x8,%esp
    4847:	8b 41 f4             	mov    -0xc(%ecx),%eax
    484a:	c7 44 07 08 06 00 00 	movl   $0x6,0x8(%edi,%eax,1)
    4851:	00 
    4852:	52                   	push   %edx
    4853:	57                   	push   %edi
    4854:	e8 27 d9 ff ff       	call   2180 <_ZNSo9_M_insertImEERSoT_@plt>
    4859:	83 c4 0c             	add    $0xc,%esp
    485c:	6a 03                	push   $0x3
    485e:	ff 75 c4             	push   -0x3c(%ebp)
    4861:	50                   	push   %eax
    4862:	e8 79 da ff ff       	call   22e0 <_ZSt16__ostream_insertIcSt11char_traitsIcEERSt13basic_ostreamIT_T0_ES6_PKS3_i@plt>
    4867:	8b 0f                	mov    (%edi),%ecx
    4869:	58                   	pop    %eax
    486a:	5a                   	pop    %edx
    486b:	0f b7 56 fe          	movzwl -0x2(%esi),%edx
    486f:	8b 41 f4             	mov    -0xc(%ecx),%eax
    4872:	c7 44 07 08 06 00 00 	movl   $0x6,0x8(%edi,%eax,1)
    4879:	00 
    487a:	52                   	push   %edx
    487b:	57                   	push   %edi
    487c:	e8 ff d8 ff ff       	call   2180 <_ZNSo9_M_insertImEERSoT_@plt>
    4881:	83 c4 0c             	add    $0xc,%esp
    4884:	6a 03                	push   $0x3
    4886:	ff 75 c4             	push   -0x3c(%ebp)
    4889:	50                   	push   %eax
    488a:	e8 51 da ff ff       	call   22e0 <_ZSt16__ostream_insertIcSt11char_traitsIcEERSt13basic_ostreamIT_T0_ES6_PKS3_i@plt>
    488f:	59                   	pop    %ecx
    4890:	8b 0f                	mov    (%edi),%ecx
    4892:	0f b7 56 fc          	movzwl -0x4(%esi),%edx
    4896:	58                   	pop    %eax
    4897:	8b 41 f4             	mov    -0xc(%ecx),%eax
    489a:	c7 44 07 08 06 00 00 	movl   $0x6,0x8(%edi,%eax,1)
    48a1:	00 
    48a2:	52                   	push   %edx
    48a3:	57                   	push   %edi
    48a4:	e8 d7 d8 ff ff       	call   2180 <_ZNSo9_M_insertImEERSoT_@plt>
    48a9:	83 c4 0c             	add    $0xc,%esp
    48ac:	6a 03                	push   $0x3
    48ae:	ff 75 c4             	push   -0x3c(%ebp)
    48b1:	50                   	push   %eax
    48b2:	e8 29 da ff ff       	call   22e0 <_ZSt16__ostream_insertIcSt11char_traitsIcEERSt13basic_ostreamIT_T0_ES6_PKS3_i@plt>
    48b7:	8d 4e fa             	lea    -0x6(%esi),%ecx
    48ba:	83 ee 08             	sub    $0x8,%esi
    48bd:	89 4d c0             	mov    %ecx,-0x40(%ebp)
    48c0:	58                   	pop    %eax
    48c1:	8b 07                	mov    (%edi),%eax
    48c3:	5a                   	pop    %edx
    48c4:	0f b7 4e 02          	movzwl 0x2(%esi),%ecx
    48c8:	8b 50 f4             	mov    -0xc(%eax),%edx
    48cb:	c7 44 17 08 06 00 00 	movl   $0x6,0x8(%edi,%edx,1)
    48d2:	00 
    48d3:	51                   	push   %ecx
    48d4:	57                   	push   %edi
    48d5:	e8 a6 d8 ff ff       	call   2180 <_ZNSo9_M_insertImEERSoT_@plt>
    48da:	83 c4 0c             	add    $0xc,%esp
    48dd:	6a 03                	push   $0x3
    48df:	ff 75 c4             	push   -0x3c(%ebp)
    48e2:	50                   	push   %eax
    48e3:	e8 f8 d9 ff ff       	call   22e0 <_ZSt16__ostream_insertIcSt11char_traitsIcEERSt13basic_ostreamIT_T0_ES6_PKS3_i@plt>
    48e8:	8b 45 c0             	mov    -0x40(%ebp),%eax
    48eb:	83 c4 10             	add    $0x10,%esp
    48ee:	39 45 bc             	cmp    %eax,-0x44(%ebp)
    48f1:	0f 85 48 ff ff ff    	jne    483f <_ZN2ez2ii17print_i256_u16x16ERSoDv4_x+0x3f>
    48f7:	8d 65 f0             	lea    -0x10(%ebp),%esp
    48fa:	59                   	pop    %ecx
    48fb:	5b                   	pop    %ebx
    48fc:	5e                   	pop    %esi
    48fd:	5f                   	pop    %edi
    48fe:	5d                   	pop    %ebp
    48ff:	8d 61 fc             	lea    -0x4(%ecx),%esp
    4902:	c3                   	ret
    4903:	2e 8d b4 26 00 00 00 	lea    %cs:0x0(%esi,%eiz,1),%esi
    490a:	00 
    490b:	2e 8d 74 26 00       	lea    %cs:0x0(%esi,%eiz,1),%esi

00004910 <_ZN2ez2ii16print_i256_u8x32ERSoDv4_x>:
    4910:	8d 4c 24 04          	lea    0x4(%esp),%ecx
    4914:	83 e4 e0             	and    $0xffffffe0,%esp
    4917:	ff 71 fc             	push   -0x4(%ecx)
    491a:	55                   	push   %ebp
    491b:	89 e5                	mov    %esp,%ebp
    491d:	57                   	push   %edi
    491e:	56                   	push   %esi
    491f:	53                   	push   %ebx
    4920:	e8 0b ef ff ff       	call   3830 <__x86.get_pc_thunk.bx>
    4925:	81 c3 97 a5 00 00    	add    $0xa597,%ebx
    492b:	51                   	push   %ecx
    492c:	8d 45 c8             	lea    -0x38(%ebp),%eax
    492f:	8d 93 7f c1 ff ff    	lea    -0x3e81(%ebx),%edx
    4935:	8d 75 e4             	lea    -0x1c(%ebp),%esi
    4938:	83 ec 48             	sub    $0x48,%esp
    493b:	c5 fd 7f 45 c8       	vmovdqa %ymm0,-0x38(%ebp)
    4940:	8b bb 24 01 00 00    	mov    0x124(%ebx),%edi
    4946:	89 45 bc             	mov    %eax,-0x44(%ebp)
    4949:	89 55 c4             	mov    %edx,-0x3c(%ebp)
    494c:	c5 f8 77             	vzeroupper
    494f:	8b 0f                	mov    (%edi),%ecx
    4951:	83 ec 08             	sub    $0x8,%esp
    4954:	8b 41 f4             	mov    -0xc(%ecx),%eax
    4957:	c7 44 07 08 0a 00 00 	movl   $0xa,0x8(%edi,%eax,1)
    495e:	00 
    495f:	ff 36                	push   (%esi)
    4961:	57                   	push   %edi
    4962:	e8 19 d8 ff ff       	call   2180 <_ZNSo9_M_insertImEERSoT_@plt>
    4967:	83 c4 0c             	add    $0xc,%esp
    496a:	6a 03                	push   $0x3
    496c:	ff 75 c4             	push   -0x3c(%ebp)
    496f:	50                   	push   %eax
    4970:	e8 6b d9 ff ff       	call   22e0 <_ZSt16__ostream_insertIcSt11char_traitsIcEERSt13basic_ostreamIT_T0_ES6_PKS3_i@plt>
    4975:	58                   	pop    %eax
    4976:	5a                   	pop    %edx
    4977:	8b 17                	mov    (%edi),%edx
    4979:	8b 4a f4             	mov    -0xc(%edx),%ecx
    497c:	c7 44 0f 08 0a 00 00 	movl   $0xa,0x8(%edi,%ecx,1)
    4983:	00 
    4984:	ff 76 fc             	push   -0x4(%esi)
    4987:	57                   	push   %edi
    4988:	e8 f3 d7 ff ff       	call   2180 <_ZNSo9_M_insertImEERSoT_@plt>
    498d:	83 c4 0c             	add    $0xc,%esp
    4990:	6a 03                	push   $0x3
    4992:	ff 75 c4             	push   -0x3c(%ebp)
    4995:	50                   	push   %eax
    4996:	e8 45 d9 ff ff       	call   22e0 <_ZSt16__ostream_insertIcSt11char_traitsIcEERSt13basic_ostreamIT_T0_ES6_PKS3_i@plt>
    499b:	59                   	pop    %ecx
    499c:	58                   	pop    %eax
    499d:	8b 07                	mov    (%edi),%eax
    499f:	8b 50 f4             	mov    -0xc(%eax),%edx
    49a2:	c7 44 17 08 0a 00 00 	movl   $0xa,0x8(%edi,%edx,1)
    49a9:	00 
    49aa:	ff 76 f8             	push   -0x8(%esi)
    49ad:	57                   	push   %edi
    49ae:	e8 cd d7 ff ff       	call   2180 <_ZNSo9_M_insertImEERSoT_@plt>
    49b3:	83 c4 0c             	add    $0xc,%esp
    49b6:	6a 03                	push   $0x3
    49b8:	ff 75 c4             	push   -0x3c(%ebp)
    49bb:	50                   	push   %eax
    49bc:	e8 1f d9 ff ff       	call   22e0 <_ZSt16__ostream_insertIcSt11char_traitsIcEERSt13basic_ostreamIT_T0_ES6_PKS3_i@plt>
    49c1:	8d 4e f4             	lea    -0xc(%esi),%ecx
    49c4:	83 ee 10             	sub    $0x10,%esi
    49c7:	89 4d c0             	mov    %ecx,-0x40(%ebp)
    49ca:	58                   	pop    %eax
    49cb:	8b 07                	mov    (%edi),%eax
    49cd:	5a                   	pop    %edx
    49ce:	8b 50 f4             	mov    -0xc(%eax),%edx
    49d1:	c7 44 17 08 0a 00 00 	movl   $0xa,0x8(%edi,%edx,1)
    49d8:	00 
    49d9:	ff 76 04             	push   0x4(%esi)
    49dc:	57                   	push   %edi
    49dd:	e8 9e d7 ff ff       	call   2180 <_ZNSo9_M_insertImEERSoT_@plt>
    49e2:	83 c4 0c             	add    $0xc,%esp
    49e5:	6a 03                	push   $0x3
    49e7:	ff 75 c4             	push   -0x3c(%ebp)
    49ea:	50                   	push   %eax
    49eb:	e8 f0 d8 ff ff       	call   22e0 <_ZSt16__ostream_insertIcSt11char_traitsIcEERSt13basic_ostreamIT_T0_ES6_PKS3_i@plt>
    49f0:	8b 4d c0             	mov    -0x40(%ebp),%ecx
    49f3:	83 c4 10             	add    $0x10,%esp
    49f6:	39 4d bc             	cmp    %ecx,-0x44(%ebp)
    49f9:	0f 85 50 ff ff ff    	jne    494f <_ZN2ez2ii16print_i256_u8x32ERSoDv4_x+0x3f>
    49ff:	8d 65 f0             	lea    -0x10(%ebp),%esp
    4a02:	59                   	pop    %ecx
    4a03:	5b                   	pop    %ebx
    4a04:	5e                   	pop    %esi
    4a05:	5f                   	pop    %edi
    4a06:	5d                   	pop    %ebp
    4a07:	8d 61 fc             	lea    -0x4(%ecx),%esp
    4a0a:	c3                   	ret
    4a0b:	2e 8d 74 26 00       	lea    %cs:0x0(%esi,%eiz,1),%esi

00004a10 <_ZN2ez2ii16print_i256_u4x64ERSoDv4_x>:
    4a10:	8d 4c 24 04          	lea    0x4(%esp),%ecx
    4a14:	83 e4 e0             	and    $0xffffffe0,%esp
    4a17:	ff 71 fc             	push   -0x4(%ecx)
    4a1a:	55                   	push   %ebp
    4a1b:	89 e5                	mov    %esp,%ebp
    4a1d:	57                   	push   %edi
    4a1e:	56                   	push   %esi
    4a1f:	53                   	push   %ebx
    4a20:	e8 0b ee ff ff       	call   3830 <__x86.get_pc_thunk.bx>
    4a25:	81 c3 97 a4 00 00    	add    $0xa497,%ebx
    4a2b:	51                   	push   %ecx
    4a2c:	8d 45 a8             	lea    -0x58(%ebp),%eax
    4a2f:	8d 93 7f c1 ff ff    	lea    -0x3e81(%ebx),%edx
    4a35:	8d 75 c8             	lea    -0x38(%ebp),%esi
    4a38:	83 ec 48             	sub    $0x48,%esp
    4a3b:	c5 fd 7f 45 c8       	vmovdqa %ymm0,-0x38(%ebp)
    4a40:	8b bb 24 01 00 00    	mov    0x124(%ebx),%edi
    4a46:	89 45 c4             	mov    %eax,-0x3c(%ebp)
    4a49:	89 55 c0             	mov    %edx,-0x40(%ebp)
    4a4c:	c5 f8 77             	vzeroupper
    4a4f:	8b 0f                	mov    (%edi),%ecx
    4a51:	83 ec 04             	sub    $0x4,%esp
    4a54:	83 ee 08             	sub    $0x8,%esi
    4a57:	8b 41 f4             	mov    -0xc(%ecx),%eax
    4a5a:	c7 44 07 08 0a 00 00 	movl   $0xa,0x8(%edi,%eax,1)
    4a61:	00 
    4a62:	ff 76 24             	push   0x24(%esi)
    4a65:	ff 76 20             	push   0x20(%esi)
    4a68:	57                   	push   %edi
    4a69:	e8 02 d7 ff ff       	call   2170 <_ZNSo9_M_insertIyEERSoT_@plt>
    4a6e:	83 c4 0c             	add    $0xc,%esp
    4a71:	6a 03                	push   $0x3
    4a73:	ff 75 c0             	push   -0x40(%ebp)
    4a76:	50                   	push   %eax
    4a77:	e8 64 d8 ff ff       	call   22e0 <_ZSt16__ostream_insertIcSt11char_traitsIcEERSt13basic_ostreamIT_T0_ES6_PKS3_i@plt>
    4a7c:	83 c4 10             	add    $0x10,%esp
    4a7f:	39 75 c4             	cmp    %esi,-0x3c(%ebp)
    4a82:	75 cb                	jne    4a4f <_ZN2ez2ii16print_i256_u4x64ERSoDv4_x+0x3f>
    4a84:	8d 65 f0             	lea    -0x10(%ebp),%esp
    4a87:	59                   	pop    %ecx
    4a88:	5b                   	pop    %ebx
    4a89:	5e                   	pop    %esi
    4a8a:	5f                   	pop    %edi
    4a8b:	5d                   	pop    %ebp
    4a8c:	8d 61 fc             	lea    -0x4(%ecx),%esp
    4a8f:	c3                   	ret

00004a90 <_ZN2ez2ii16print_i256_i32x8ERSoDv4_x>:
    4a90:	8d 4c 24 04          	lea    0x4(%esp),%ecx
    4a94:	83 e4 e0             	and    $0xffffffe0,%esp
    4a97:	ff 71 fc             	push   -0x4(%ecx)
    4a9a:	55                   	push   %ebp
    4a9b:	89 e5                	mov    %esp,%ebp
    4a9d:	57                   	push   %edi
    4a9e:	56                   	push   %esi
    4a9f:	53                   	push   %ebx
    4aa0:	e8 8b ed ff ff       	call   3830 <__x86.get_pc_thunk.bx>
    4aa5:	81 c3 17 a4 00 00    	add    $0xa417,%ebx
    4aab:	51                   	push   %ecx
    4aac:	8d 45 c8             	lea    -0x38(%ebp),%eax
    4aaf:	8d 93 7f c1 ff ff    	lea    -0x3e81(%ebx),%edx
    4ab5:	8d 75 e7             	lea    -0x19(%ebp),%esi
    4ab8:	83 ec 48             	sub    $0x48,%esp
    4abb:	c5 fd 7f 45 c8       	vmovdqa %ymm0,-0x38(%ebp)
    4ac0:	8b bb 24 01 00 00    	mov    0x124(%ebx),%edi
    4ac6:	89 45 bc             	mov    %eax,-0x44(%ebp)
    4ac9:	89 55 c4             	mov    %edx,-0x3c(%ebp)
    4acc:	c5 f8 77             	vzeroupper
    4acf:	90                   	nop
    4ad0:	8b 0f                	mov    (%edi),%ecx
    4ad2:	0f be 16             	movsbl (%esi),%edx
    4ad5:	83 ec 08             	sub    $0x8,%esp
    4ad8:	8b 41 f4             	mov    -0xc(%ecx),%eax
    4adb:	c7 44 07 08 03 00 00 	movl   $0x3,0x8(%edi,%eax,1)
    4ae2:	00 
    4ae3:	52                   	push   %edx
    4ae4:	57                   	push   %edi
    4ae5:	e8 d6 d8 ff ff       	call   23c0 <_ZNSolsEi@plt>
    4aea:	83 c4 0c             	add    $0xc,%esp
    4aed:	6a 03                	push   $0x3
    4aef:	ff 75 c4             	push   -0x3c(%ebp)
    4af2:	50                   	push   %eax
    4af3:	e8 e8 d7 ff ff       	call   22e0 <_ZSt16__ostream_insertIcSt11char_traitsIcEERSt13basic_ostreamIT_T0_ES6_PKS3_i@plt>
    4af8:	8b 0f                	mov    (%edi),%ecx
    4afa:	58                   	pop    %eax
    4afb:	5a                   	pop    %edx
    4afc:	0f be 56 ff          	movsbl -0x1(%esi),%edx
    4b00:	8b 41 f4             	mov    -0xc(%ecx),%eax
    4b03:	c7 44 07 08 03 00 00 	movl   $0x3,0x8(%edi,%eax,1)
    4b0a:	00 
    4b0b:	52                   	push   %edx
    4b0c:	57                   	push   %edi
    4b0d:	e8 ae d8 ff ff       	call   23c0 <_ZNSolsEi@plt>
    4b12:	83 c4 0c             	add    $0xc,%esp
    4b15:	6a 03                	push   $0x3
    4b17:	ff 75 c4             	push   -0x3c(%ebp)
    4b1a:	50                   	push   %eax
    4b1b:	e8 c0 d7 ff ff       	call   22e0 <_ZSt16__ostream_insertIcSt11char_traitsIcEERSt13basic_ostreamIT_T0_ES6_PKS3_i@plt>
    4b20:	59                   	pop    %ecx
    4b21:	8b 0f                	mov    (%edi),%ecx
    4b23:	0f be 56 fe          	movsbl -0x2(%esi),%edx
    4b27:	58                   	pop    %eax
    4b28:	8b 41 f4             	mov    -0xc(%ecx),%eax
    4b2b:	c7 44 07 08 03 00 00 	movl   $0x3,0x8(%edi,%eax,1)
    4b32:	00 
    4b33:	52                   	push   %edx
    4b34:	57                   	push   %edi
    4b35:	e8 86 d8 ff ff       	call   23c0 <_ZNSolsEi@plt>
    4b3a:	83 c4 0c             	add    $0xc,%esp
    4b3d:	6a 03                	push   $0x3
    4b3f:	ff 75 c4             	push   -0x3c(%ebp)
    4b42:	50                   	push   %eax
    4b43:	e8 98 d7 ff ff       	call   22e0 <_ZSt16__ostream_insertIcSt11char_traitsIcEERSt13basic_ostreamIT_T0_ES6_PKS3_i@plt>
    4b48:	8d 4e fd             	lea    -0x3(%esi),%ecx
    4b4b:	83 ee 04             	sub    $0x4,%esi
    4b4e:	89 4d c0             	mov    %ecx,-0x40(%ebp)
    4b51:	58                   	pop    %eax
    4b52:	8b 07                	mov    (%edi),%eax
    4b54:	5a                   	pop    %edx
    4b55:	0f be 4e 01          	movsbl 0x1(%esi),%ecx
    4b59:	8b 50 f4             	mov    -0xc(%eax),%edx
    4b5c:	c7 44 17 08 03 00 00 	movl   $0x3,0x8(%edi,%edx,1)
    4b63:	00 
    4b64:	51                   	push   %ecx
    4b65:	57                   	push   %edi
    4b66:	e8 55 d8 ff ff       	call   23c0 <_ZNSolsEi@plt>
    4b6b:	83 c4 0c             	add    $0xc,%esp
    4b6e:	6a 03                	push   $0x3
    4b70:	ff 75 c4             	push   -0x3c(%ebp)
    4b73:	50                   	push   %eax
    4b74:	e8 67 d7 ff ff       	call   22e0 <_ZSt16__ostream_insertIcSt11char_traitsIcEERSt13basic_ostreamIT_T0_ES6_PKS3_i@plt>
    4b79:	8b 45 c0             	mov    -0x40(%ebp),%eax
    4b7c:	83 c4 10             	add    $0x10,%esp
    4b7f:	39 45 bc             	cmp    %eax,-0x44(%ebp)
    4b82:	0f 85 48 ff ff ff    	jne    4ad0 <_ZN2ez2ii16print_i256_i32x8ERSoDv4_x+0x40>
    4b88:	8d 65 f0             	lea    -0x10(%ebp),%esp
    4b8b:	59                   	pop    %ecx
    4b8c:	5b                   	pop    %ebx
    4b8d:	5e                   	pop    %esi
    4b8e:	5f                   	pop    %edi
    4b8f:	5d                   	pop    %ebp
    4b90:	8d 61 fc             	lea    -0x4(%ecx),%esp
    4b93:	c3                   	ret
    4b94:	2e 8d b4 26 00 00 00 	lea    %cs:0x0(%esi,%eiz,1),%esi
    4b9b:	00 
    4b9c:	8d 74 26 00          	lea    0x0(%esi,%eiz,1),%esi

00004ba0 <_ZN2ez2ii17print_i256_i16x16ERSoDv4_x>:
    4ba0:	8d 4c 24 04          	lea    0x4(%esp),%ecx
    4ba4:	83 e4 e0             	and    $0xffffffe0,%esp
    4ba7:	ff 71 fc             	push   -0x4(%ecx)
    4baa:	55                   	push   %ebp
    4bab:	89 e5                	mov    %esp,%ebp
    4bad:	57                   	push   %edi
    4bae:	56                   	push   %esi
    4baf:	53                   	push   %ebx
    4bb0:	e8 7b ec ff ff       	call   3830 <__x86.get_pc_thunk.bx>
    4bb5:	81 c3 07 a3 00 00    	add    $0xa307,%ebx
    4bbb:	51                   	push   %ecx
    4bbc:	8d 45 c8             	lea    -0x38(%ebp),%eax
    4bbf:	8d 93 7f c1 ff ff    	lea    -0x3e81(%ebx),%edx
    4bc5:	8d 75 e6             	lea    -0x1a(%ebp),%esi
    4bc8:	83 ec 48             	sub    $0x48,%esp
    4bcb:	c5 fd 7f 45 c8       	vmovdqa %ymm0,-0x38(%ebp)
    4bd0:	8b bb 24 01 00 00    	mov    0x124(%ebx),%edi
    4bd6:	89 45 bc             	mov    %eax,-0x44(%ebp)
    4bd9:	89 55 c4             	mov    %edx,-0x3c(%ebp)
    4bdc:	c5 f8 77             	vzeroupper
    4bdf:	8b 0f                	mov    (%edi),%ecx
    4be1:	0f bf 16             	movswl (%esi),%edx
    4be4:	83 ec 08             	sub    $0x8,%esp
    4be7:	8b 41 f4             	mov    -0xc(%ecx),%eax
    4bea:	c7 44 07 08 06 00 00 	movl   $0x6,0x8(%edi,%eax,1)
    4bf1:	00 
    4bf2:	52                   	push   %edx
    4bf3:	57                   	push   %edi
    4bf4:	e8 47 d6 ff ff       	call   2240 <_ZNSolsEs@plt>
    4bf9:	83 c4 0c             	add    $0xc,%esp
    4bfc:	6a 03                	push   $0x3
    4bfe:	ff 75 c4             	push   -0x3c(%ebp)
    4c01:	50                   	push   %eax
    4c02:	e8 d9 d6 ff ff       	call   22e0 <_ZSt16__ostream_insertIcSt11char_traitsIcEERSt13basic_ostreamIT_T0_ES6_PKS3_i@plt>
    4c07:	8b 0f                	mov    (%edi),%ecx
    4c09:	58                   	pop    %eax
    4c0a:	5a                   	pop    %edx
    4c0b:	0f bf 56 fe          	movswl -0x2(%esi),%edx
    4c0f:	8b 41 f4             	mov    -0xc(%ecx),%eax
    4c12:	c7 44 07 08 06 00 00 	movl   $0x6,0x8(%edi,%eax,1)
    4c19:	00 
    4c1a:	52                   	push   %edx
    4c1b:	57                   	push   %edi
    4c1c:	e8 1f d6 ff ff       	call   2240 <_ZNSolsEs@plt>
    4c21:	83 c4 0c             	add    $0xc,%esp
    4c24:	6a 03                	push   $0x3
    4c26:	ff 75 c4             	push   -0x3c(%ebp)
    4c29:	50                   	push   %eax
    4c2a:	e8 b1 d6 ff ff       	call   22e0 <_ZSt16__ostream_insertIcSt11char_traitsIcEERSt13basic_ostreamIT_T0_ES6_PKS3_i@plt>
    4c2f:	59                   	pop    %ecx
    4c30:	8b 0f                	mov    (%edi),%ecx
    4c32:	0f bf 56 fc          	movswl -0x4(%esi),%edx
    4c36:	58                   	pop    %eax
    4c37:	8b 41 f4             	mov    -0xc(%ecx),%eax
    4c3a:	c7 44 07 08 06 00 00 	movl   $0x6,0x8(%edi,%eax,1)
    4c41:	00 
    4c42:	52                   	push   %edx
    4c43:	57                   	push   %edi
    4c44:	e8 f7 d5 ff ff       	call   2240 <_ZNSolsEs@plt>
    4c49:	83 c4 0c             	add    $0xc,%esp
    4c4c:	6a 03                	push   $0x3
    4c4e:	ff 75 c4             	push   -0x3c(%ebp)
    4c51:	50                   	push   %eax
    4c52:	e8 89 d6 ff ff       	call   22e0 <_ZSt16__ostream_insertIcSt11char_traitsIcEERSt13basic_ostreamIT_T0_ES6_PKS3_i@plt>
    4c57:	8d 4e fa             	lea    -0x6(%esi),%ecx
    4c5a:	83 ee 08             	sub    $0x8,%esi
    4c5d:	89 4d c0             	mov    %ecx,-0x40(%ebp)
    4c60:	58                   	pop    %eax
    4c61:	8b 07                	mov    (%edi),%eax
    4c63:	5a                   	pop    %edx
    4c64:	0f bf 4e 02          	movswl 0x2(%esi),%ecx
    4c68:	8b 50 f4             	mov    -0xc(%eax),%edx
    4c6b:	c7 44 17 08 06 00 00 	movl   $0x6,0x8(%edi,%edx,1)
    4c72:	00 
    4c73:	51                   	push   %ecx
    4c74:	57                   	push   %edi
    4c75:	e8 c6 d5 ff ff       	call   2240 <_ZNSolsEs@plt>
    4c7a:	83 c4 0c             	add    $0xc,%esp
    4c7d:	6a 03                	push   $0x3
    4c7f:	ff 75 c4             	push   -0x3c(%ebp)
    4c82:	50                   	push   %eax
    4c83:	e8 58 d6 ff ff       	call   22e0 <_ZSt16__ostream_insertIcSt11char_traitsIcEERSt13basic_ostreamIT_T0_ES6_PKS3_i@plt>
    4c88:	8b 45 c0             	mov    -0x40(%ebp),%eax
    4c8b:	83 c4 10             	add    $0x10,%esp
    4c8e:	39 45 bc             	cmp    %eax,-0x44(%ebp)
    4c91:	0f 85 48 ff ff ff    	jne    4bdf <_ZN2ez2ii17print_i256_i16x16ERSoDv4_x+0x3f>
    4c97:	8d 65 f0             	lea    -0x10(%ebp),%esp
    4c9a:	59                   	pop    %ecx
    4c9b:	5b                   	pop    %ebx
    4c9c:	5e                   	pop    %esi
    4c9d:	5f                   	pop    %edi
    4c9e:	5d                   	pop    %ebp
    4c9f:	8d 61 fc             	lea    -0x4(%ecx),%esp
    4ca2:	c3                   	ret
    4ca3:	2e 8d b4 26 00 00 00 	lea    %cs:0x0(%esi,%eiz,1),%esi
    4caa:	00 
    4cab:	2e 8d 74 26 00       	lea    %cs:0x0(%esi,%eiz,1),%esi

00004cb0 <_ZN2ez2ii16print_i256_i8x32ERSoDv4_x>:
    4cb0:	8d 4c 24 04          	lea    0x4(%esp),%ecx
    4cb4:	83 e4 e0             	and    $0xffffffe0,%esp
    4cb7:	ff 71 fc             	push   -0x4(%ecx)
    4cba:	55                   	push   %ebp
    4cbb:	89 e5                	mov    %esp,%ebp
    4cbd:	57                   	push   %edi
    4cbe:	56                   	push   %esi
    4cbf:	53                   	push   %ebx
    4cc0:	e8 6b eb ff ff       	call   3830 <__x86.get_pc_thunk.bx>
    4cc5:	81 c3 f7 a1 00 00    	add    $0xa1f7,%ebx
    4ccb:	51                   	push   %ecx
    4ccc:	8d 45 c8             	lea    -0x38(%ebp),%eax
    4ccf:	8d 93 7f c1 ff ff    	lea    -0x3e81(%ebx),%edx
    4cd5:	8d 75 e4             	lea    -0x1c(%ebp),%esi
    4cd8:	83 ec 48             	sub    $0x48,%esp
    4cdb:	c5 fd 7f 45 c8       	vmovdqa %ymm0,-0x38(%ebp)
    4ce0:	8b bb 24 01 00 00    	mov    0x124(%ebx),%edi
    4ce6:	89 45 bc             	mov    %eax,-0x44(%ebp)
    4ce9:	89 55 c4             	mov    %edx,-0x3c(%ebp)
    4cec:	c5 f8 77             	vzeroupper
    4cef:	8b 0f                	mov    (%edi),%ecx
    4cf1:	83 ec 08             	sub    $0x8,%esp
    4cf4:	8b 41 f4             	mov    -0xc(%ecx),%eax
    4cf7:	c7 44 07 08 0a 00 00 	movl   $0xa,0x8(%edi,%eax,1)
    4cfe:	00 
    4cff:	ff 36                	push   (%esi)
    4d01:	57                   	push   %edi
    4d02:	e8 b9 d6 ff ff       	call   23c0 <_ZNSolsEi@plt>
    4d07:	83 c4 0c             	add    $0xc,%esp
    4d0a:	6a 03                	push   $0x3
    4d0c:	ff 75 c4             	push   -0x3c(%ebp)
    4d0f:	50                   	push   %eax
    4d10:	e8 cb d5 ff ff       	call   22e0 <_ZSt16__ostream_insertIcSt11char_traitsIcEERSt13basic_ostreamIT_T0_ES6_PKS3_i@plt>
    4d15:	58                   	pop    %eax
    4d16:	5a                   	pop    %edx
    4d17:	8b 17                	mov    (%edi),%edx
    4d19:	8b 4a f4             	mov    -0xc(%edx),%ecx
    4d1c:	c7 44 0f 08 0a 00 00 	movl   $0xa,0x8(%edi,%ecx,1)
    4d23:	00 
    4d24:	ff 76 fc             	push   -0x4(%esi)
    4d27:	57                   	push   %edi
    4d28:	e8 93 d6 ff ff       	call   23c0 <_ZNSolsEi@plt>
    4d2d:	83 c4 0c             	add    $0xc,%esp
    4d30:	6a 03                	push   $0x3
    4d32:	ff 75 c4             	push   -0x3c(%ebp)
    4d35:	50                   	push   %eax
    4d36:	e8 a5 d5 ff ff       	call   22e0 <_ZSt16__ostream_insertIcSt11char_traitsIcEERSt13basic_ostreamIT_T0_ES6_PKS3_i@plt>
    4d3b:	59                   	pop    %ecx
    4d3c:	58                   	pop    %eax
    4d3d:	8b 07                	mov    (%edi),%eax
    4d3f:	8b 50 f4             	mov    -0xc(%eax),%edx
    4d42:	c7 44 17 08 0a 00 00 	movl   $0xa,0x8(%edi,%edx,1)
    4d49:	00 
    4d4a:	ff 76 f8             	push   -0x8(%esi)
    4d4d:	57                   	push   %edi
    4d4e:	e8 6d d6 ff ff       	call   23c0 <_ZNSolsEi@plt>
    4d53:	83 c4 0c             	add    $0xc,%esp
    4d56:	6a 03                	push   $0x3
    4d58:	ff 75 c4             	push   -0x3c(%ebp)
    4d5b:	50                   	push   %eax
    4d5c:	e8 7f d5 ff ff       	call   22e0 <_ZSt16__ostream_insertIcSt11char_traitsIcEERSt13basic_ostreamIT_T0_ES6_PKS3_i@plt>
    4d61:	8d 4e f4             	lea    -0xc(%esi),%ecx
    4d64:	83 ee 10             	sub    $0x10,%esi
    4d67:	89 4d c0             	mov    %ecx,-0x40(%ebp)
    4d6a:	58                   	pop    %eax
    4d6b:	8b 07                	mov    (%edi),%eax
    4d6d:	5a                   	pop    %edx
    4d6e:	8b 50 f4             	mov    -0xc(%eax),%edx
    4d71:	c7 44 17 08 0a 00 00 	movl   $0xa,0x8(%edi,%edx,1)
    4d78:	00 
    4d79:	ff 76 04             	push   0x4(%esi)
    4d7c:	57                   	push   %edi
    4d7d:	e8 3e d6 ff ff       	call   23c0 <_ZNSolsEi@plt>
    4d82:	83 c4 0c             	add    $0xc,%esp
    4d85:	6a 03                	push   $0x3
    4d87:	ff 75 c4             	push   -0x3c(%ebp)
    4d8a:	50                   	push   %eax
    4d8b:	e8 50 d5 ff ff       	call   22e0 <_ZSt16__ostream_insertIcSt11char_traitsIcEERSt13basic_ostreamIT_T0_ES6_PKS3_i@plt>
    4d90:	8b 4d c0             	mov    -0x40(%ebp),%ecx
    4d93:	83 c4 10             	add    $0x10,%esp
    4d96:	39 4d bc             	cmp    %ecx,-0x44(%ebp)
    4d99:	0f 85 50 ff ff ff    	jne    4cef <_ZN2ez2ii16print_i256_i8x32ERSoDv4_x+0x3f>
    4d9f:	8d 65 f0             	lea    -0x10(%ebp),%esp
    4da2:	59                   	pop    %ecx
    4da3:	5b                   	pop    %ebx
    4da4:	5e                   	pop    %esi
    4da5:	5f                   	pop    %edi
    4da6:	5d                   	pop    %ebp
    4da7:	8d 61 fc             	lea    -0x4(%ecx),%esp
    4daa:	c3                   	ret
    4dab:	2e 8d 74 26 00       	lea    %cs:0x0(%esi,%eiz,1),%esi

00004db0 <_ZN2ez2ii16print_i256_i4x64ERSoDv4_x>:
    4db0:	8d 4c 24 04          	lea    0x4(%esp),%ecx
    4db4:	83 e4 e0             	and    $0xffffffe0,%esp
    4db7:	ff 71 fc             	push   -0x4(%ecx)
    4dba:	55                   	push   %ebp
    4dbb:	89 e5                	mov    %esp,%ebp
    4dbd:	57                   	push   %edi
    4dbe:	56                   	push   %esi
    4dbf:	53                   	push   %ebx
    4dc0:	e8 6b ea ff ff       	call   3830 <__x86.get_pc_thunk.bx>
    4dc5:	81 c3 f7 a0 00 00    	add    $0xa0f7,%ebx
    4dcb:	51                   	push   %ecx
    4dcc:	8d 45 a8             	lea    -0x58(%ebp),%eax
    4dcf:	8d 93 7f c1 ff ff    	lea    -0x3e81(%ebx),%edx
    4dd5:	8d 75 c8             	lea    -0x38(%ebp),%esi
    4dd8:	83 ec 48             	sub    $0x48,%esp
    4ddb:	c5 fd 7f 45 c8       	vmovdqa %ymm0,-0x38(%ebp)
    4de0:	8b bb 24 01 00 00    	mov    0x124(%ebx),%edi
    4de6:	89 45 c4             	mov    %eax,-0x3c(%ebp)
    4de9:	89 55 c0             	mov    %edx,-0x40(%ebp)
    4dec:	c5 f8 77             	vzeroupper
    4def:	8b 0f                	mov    (%edi),%ecx
    4df1:	83 ec 04             	sub    $0x4,%esp
    4df4:	83 ee 08             	sub    $0x8,%esi
    4df7:	8b 41 f4             	mov    -0xc(%ecx),%eax
    4dfa:	c7 44 07 08 0a 00 00 	movl   $0xa,0x8(%edi,%eax,1)
    4e01:	00 
    4e02:	ff 76 24             	push   0x24(%esi)
    4e05:	ff 76 20             	push   0x20(%esi)
    4e08:	57                   	push   %edi
    4e09:	e8 c2 d2 ff ff       	call   20d0 <_ZNSo9_M_insertIxEERSoT_@plt>
    4e0e:	83 c4 0c             	add    $0xc,%esp
    4e11:	6a 03                	push   $0x3
    4e13:	ff 75 c0             	push   -0x40(%ebp)
    4e16:	50                   	push   %eax
    4e17:	e8 c4 d4 ff ff       	call   22e0 <_ZSt16__ostream_insertIcSt11char_traitsIcEERSt13basic_ostreamIT_T0_ES6_PKS3_i@plt>
    4e1c:	83 c4 10             	add    $0x10,%esp
    4e1f:	39 75 c4             	cmp    %esi,-0x3c(%ebp)
    4e22:	75 cb                	jne    4def <_ZN2ez2ii16print_i256_i4x64ERSoDv4_x+0x3f>
    4e24:	8d 65 f0             	lea    -0x10(%ebp),%esp
    4e27:	59                   	pop    %ecx
    4e28:	5b                   	pop    %ebx
    4e29:	5e                   	pop    %esi
    4e2a:	5f                   	pop    %edi
    4e2b:	5d                   	pop    %ebp
    4e2c:	8d 61 fc             	lea    -0x4(%ecx),%esp
    4e2f:	c3                   	ret

00004e30 <_ZN2ez2ii10print_i256ERSoDv4_x>:
    4e30:	8d 4c 24 04          	lea    0x4(%esp),%ecx
    4e34:	83 e4 e0             	and    $0xffffffe0,%esp
    4e37:	ff 71 fc             	push   -0x4(%ecx)
    4e3a:	55                   	push   %ebp
    4e3b:	89 e5                	mov    %esp,%ebp
    4e3d:	57                   	push   %edi
    4e3e:	56                   	push   %esi
    4e3f:	53                   	push   %ebx
    4e40:	e8 eb e9 ff ff       	call   3830 <__x86.get_pc_thunk.bx>
    4e45:	81 c3 77 a0 00 00    	add    $0xa077,%ebx
    4e4b:	51                   	push   %ecx
    4e4c:	83 ec 68             	sub    $0x68,%esp
    4e4f:	65 a1 14 00 00 00    	mov    %gs:0x14,%eax
    4e55:	89 45 e4             	mov    %eax,-0x1c(%ebp)
    4e58:	8b 83 50 01 00 00    	mov    0x150(%ebx),%eax
    4e5e:	83 c0 04             	add    $0x4,%eax
    4e61:	83 f8 08             	cmp    $0x8,%eax
    4e64:	77 6f                	ja     4ed5 <.L139>
    4e66:	8b 84 83 bc c5 ff ff 	mov    -0x3a44(%ebx,%eax,4),%eax
    4e6d:	01 d8                	add    %ebx,%eax
    4e6f:	ff e0                	jmp    *%eax
    4e71:	2e 8d b4 26 00 00 00 	lea    %cs:0x0(%esi,%eiz,1),%esi
    4e78:	00 
    4e79:	8d b4 26 00 00 00 00 	lea    0x0(%esi,%eiz,1),%esi

00004e80 <.L149>:
    4e80:	8d 7d 88             	lea    -0x78(%ebp),%edi
    4e83:	8d 83 7f c1 ff ff    	lea    -0x3e81(%ebx),%eax
    4e89:	c5 fd 7f 45 a8       	vmovdqa %ymm0,-0x58(%ebp)
    4e8e:	8d 75 a8             	lea    -0x58(%ebp),%esi
    4e91:	89 7d a4             	mov    %edi,-0x5c(%ebp)
    4e94:	89 45 a0             	mov    %eax,-0x60(%ebp)
    4e97:	8b bb 24 01 00 00    	mov    0x124(%ebx),%edi
    4e9d:	c5 f8 77             	vzeroupper
    4ea0:	8b 17                	mov    (%edi),%edx
    4ea2:	83 ec 04             	sub    $0x4,%esp
    4ea5:	83 ee 08             	sub    $0x8,%esi
    4ea8:	8b 4a f4             	mov    -0xc(%edx),%ecx
    4eab:	c7 44 0f 08 0a 00 00 	movl   $0xa,0x8(%edi,%ecx,1)
    4eb2:	00 
    4eb3:	ff 76 24             	push   0x24(%esi)
    4eb6:	ff 76 20             	push   0x20(%esi)
    4eb9:	57                   	push   %edi
    4eba:	e8 11 d2 ff ff       	call   20d0 <_ZNSo9_M_insertIxEERSoT_@plt>
    4ebf:	83 c4 0c             	add    $0xc,%esp
    4ec2:	6a 03                	push   $0x3
    4ec4:	ff 75 a0             	push   -0x60(%ebp)
    4ec7:	50                   	push   %eax
    4ec8:	e8 13 d4 ff ff       	call   22e0 <_ZSt16__ostream_insertIcSt11char_traitsIcEERSt13basic_ostreamIT_T0_ES6_PKS3_i@plt>
    4ecd:	83 c4 10             	add    $0x10,%esp
    4ed0:	39 75 a4             	cmp    %esi,-0x5c(%ebp)
    4ed3:	75 cb                	jne    4ea0 <.L149+0x20>

00004ed5 <.L139>:
    4ed5:	8b 45 e4             	mov    -0x1c(%ebp),%eax
    4ed8:	65 2b 05 14 00 00 00 	sub    %gs:0x14,%eax
    4edf:	0f 85 9b 05 00 00    	jne    5480 <.L143+0xd0>
    4ee5:	8d 65 f0             	lea    -0x10(%ebp),%esp
    4ee8:	59                   	pop    %ecx
    4ee9:	5b                   	pop    %ebx
    4eea:	5e                   	pop    %esi
    4eeb:	5f                   	pop    %edi
    4eec:	5d                   	pop    %ebp
    4eed:	8d 61 fc             	lea    -0x4(%ecx),%esp
    4ef0:	c3                   	ret
    4ef1:	2e 8d b4 26 00 00 00 	lea    %cs:0x0(%esi,%eiz,1),%esi
    4ef8:	00 
    4ef9:	8d b4 26 00 00 00 00 	lea    0x0(%esi,%eiz,1),%esi

00004f00 <.L141>:
    4f00:	8d 55 88             	lea    -0x78(%ebp),%edx
    4f03:	8d 8b 7f c1 ff ff    	lea    -0x3e81(%ebx),%ecx
    4f09:	c5 fd 7f 45 a8       	vmovdqa %ymm0,-0x58(%ebp)
    4f0e:	8b bb 24 01 00 00    	mov    0x124(%ebx),%edi
    4f14:	8d 75 a8             	lea    -0x58(%ebp),%esi
    4f17:	89 55 a4             	mov    %edx,-0x5c(%ebp)
    4f1a:	89 4d a0             	mov    %ecx,-0x60(%ebp)
    4f1d:	c5 f8 77             	vzeroupper
    4f20:	8b 07                	mov    (%edi),%eax
    4f22:	83 ec 04             	sub    $0x4,%esp
    4f25:	83 ee 08             	sub    $0x8,%esi
    4f28:	8b 50 f4             	mov    -0xc(%eax),%edx
    4f2b:	c7 44 17 08 0a 00 00 	movl   $0xa,0x8(%edi,%edx,1)
    4f32:	00 
    4f33:	ff 76 24             	push   0x24(%esi)
    4f36:	ff 76 20             	push   0x20(%esi)
    4f39:	57                   	push   %edi
    4f3a:	e8 31 d2 ff ff       	call   2170 <_ZNSo9_M_insertIyEERSoT_@plt>
    4f3f:	83 c4 0c             	add    $0xc,%esp
    4f42:	6a 03                	push   $0x3
    4f44:	ff 75 a0             	push   -0x60(%ebp)
    4f47:	50                   	push   %eax
    4f48:	e8 93 d3 ff ff       	call   22e0 <_ZSt16__ostream_insertIcSt11char_traitsIcEERSt13basic_ostreamIT_T0_ES6_PKS3_i@plt>
    4f4d:	83 c4 10             	add    $0x10,%esp
    4f50:	39 75 a4             	cmp    %esi,-0x5c(%ebp)
    4f53:	75 cb                	jne    4f20 <.L141+0x20>
    4f55:	e9 7b ff ff ff       	jmp    4ed5 <.L139>
    4f5a:	8d b6 00 00 00 00    	lea    0x0(%esi),%esi

00004f60 <.L148>:
    4f60:	8d 75 a8             	lea    -0x58(%ebp),%esi
    4f63:	8d 93 7f c1 ff ff    	lea    -0x3e81(%ebx),%edx
    4f69:	8b bb 24 01 00 00    	mov    0x124(%ebx),%edi
    4f6f:	89 75 9c             	mov    %esi,-0x64(%ebp)
    4f72:	89 55 a4             	mov    %edx,-0x5c(%ebp)
    4f75:	8d 75 c4             	lea    -0x3c(%ebp),%esi
    4f78:	c5 f8 77             	vzeroupper
    4f7b:	8b 0f                	mov    (%edi),%ecx
    4f7d:	83 ec 08             	sub    $0x8,%esp
    4f80:	8b 41 f4             	mov    -0xc(%ecx),%eax
    4f83:	c7 44 07 08 0a 00 00 	movl   $0xa,0x8(%edi,%eax,1)
    4f8a:	00 
    4f8b:	ff 36                	push   (%esi)
    4f8d:	57                   	push   %edi
    4f8e:	e8 2d d4 ff ff       	call   23c0 <_ZNSolsEi@plt>
    4f93:	83 c4 0c             	add    $0xc,%esp
    4f96:	6a 03                	push   $0x3
    4f98:	ff 75 a4             	push   -0x5c(%ebp)
    4f9b:	50                   	push   %eax
    4f9c:	e8 3f d3 ff ff       	call   22e0 <_ZSt16__ostream_insertIcSt11char_traitsIcEERSt13basic_ostreamIT_T0_ES6_PKS3_i@plt>
    4fa1:	58                   	pop    %eax
    4fa2:	5a                   	pop    %edx
    4fa3:	8b 17                	mov    (%edi),%edx
    4fa5:	8b 4a f4             	mov    -0xc(%edx),%ecx
    4fa8:	c7 44 0f 08 0a 00 00 	movl   $0xa,0x8(%edi,%ecx,1)
    4faf:	00 
    4fb0:	ff 76 fc             	push   -0x4(%esi)
    4fb3:	57                   	push   %edi
    4fb4:	e8 07 d4 ff ff       	call   23c0 <_ZNSolsEi@plt>
    4fb9:	83 c4 0c             	add    $0xc,%esp
    4fbc:	6a 03                	push   $0x3
    4fbe:	ff 75 a4             	push   -0x5c(%ebp)
    4fc1:	50                   	push   %eax
    4fc2:	e8 19 d3 ff ff       	call   22e0 <_ZSt16__ostream_insertIcSt11char_traitsIcEERSt13basic_ostreamIT_T0_ES6_PKS3_i@plt>
    4fc7:	59                   	pop    %ecx
    4fc8:	58                   	pop    %eax
    4fc9:	8b 07                	mov    (%edi),%eax
    4fcb:	8b 50 f4             	mov    -0xc(%eax),%edx
    4fce:	c7 44 17 08 0a 00 00 	movl   $0xa,0x8(%edi,%edx,1)
    4fd5:	00 
    4fd6:	ff 76 f8             	push   -0x8(%esi)
    4fd9:	57                   	push   %edi
    4fda:	e8 e1 d3 ff ff       	call   23c0 <_ZNSolsEi@plt>
    4fdf:	83 c4 0c             	add    $0xc,%esp
    4fe2:	6a 03                	push   $0x3
    4fe4:	ff 75 a4             	push   -0x5c(%ebp)
    4fe7:	50                   	push   %eax
    4fe8:	e8 f3 d2 ff ff       	call   22e0 <_ZSt16__ostream_insertIcSt11char_traitsIcEERSt13basic_ostreamIT_T0_ES6_PKS3_i@plt>
    4fed:	8d 4e f4             	lea    -0xc(%esi),%ecx
    4ff0:	83 ee 10             	sub    $0x10,%esi
    4ff3:	89 4d a0             	mov    %ecx,-0x60(%ebp)
    4ff6:	58                   	pop    %eax
    4ff7:	8b 07                	mov    (%edi),%eax
    4ff9:	5a                   	pop    %edx
    4ffa:	8b 50 f4             	mov    -0xc(%eax),%edx
    4ffd:	c7 44 17 08 0a 00 00 	movl   $0xa,0x8(%edi,%edx,1)
    5004:	00 
    5005:	ff 76 04             	push   0x4(%esi)
    5008:	57                   	push   %edi
    5009:	e8 b2 d3 ff ff       	call   23c0 <_ZNSolsEi@plt>
    500e:	83 c4 0c             	add    $0xc,%esp
    5011:	6a 03                	push   $0x3
    5013:	ff 75 a4             	push   -0x5c(%ebp)
    5016:	50                   	push   %eax
    5017:	e8 c4 d2 ff ff       	call   22e0 <_ZSt16__ostream_insertIcSt11char_traitsIcEERSt13basic_ostreamIT_T0_ES6_PKS3_i@plt>
    501c:	8b 4d a0             	mov    -0x60(%ebp),%ecx
    501f:	83 c4 10             	add    $0x10,%esp
    5022:	39 4d 9c             	cmp    %ecx,-0x64(%ebp)
    5025:	0f 85 50 ff ff ff    	jne    4f7b <.L148+0x1b>
    502b:	e9 a5 fe ff ff       	jmp    4ed5 <.L139>

00005030 <.L147>:
    5030:	8d 75 a8             	lea    -0x58(%ebp),%esi
    5033:	8d 93 7f c1 ff ff    	lea    -0x3e81(%ebx),%edx
    5039:	8b bb 24 01 00 00    	mov    0x124(%ebx),%edi
    503f:	89 75 9c             	mov    %esi,-0x64(%ebp)
    5042:	89 55 a4             	mov    %edx,-0x5c(%ebp)
    5045:	8d 75 c6             	lea    -0x3a(%ebp),%esi
    5048:	c5 f8 77             	vzeroupper
    504b:	8b 0f                	mov    (%edi),%ecx
    504d:	0f bf 16             	movswl (%esi),%edx
    5050:	83 ec 08             	sub    $0x8,%esp
    5053:	8b 41 f4             	mov    -0xc(%ecx),%eax
    5056:	c7 44 07 08 06 00 00 	movl   $0x6,0x8(%edi,%eax,1)
    505d:	00 
    505e:	52                   	push   %edx
    505f:	57                   	push   %edi
    5060:	e8 db d1 ff ff       	call   2240 <_ZNSolsEs@plt>
    5065:	83 c4 0c             	add    $0xc,%esp
    5068:	6a 03                	push   $0x3
    506a:	ff 75 a4             	push   -0x5c(%ebp)
    506d:	50                   	push   %eax
    506e:	e8 6d d2 ff ff       	call   22e0 <_ZSt16__ostream_insertIcSt11char_traitsIcEERSt13basic_ostreamIT_T0_ES6_PKS3_i@plt>
    5073:	59                   	pop    %ecx
    5074:	8b 0f                	mov    (%edi),%ecx
    5076:	0f bf 56 fe          	movswl -0x2(%esi),%edx
    507a:	58                   	pop    %eax
    507b:	8b 41 f4             	mov    -0xc(%ecx),%eax
    507e:	c7 44 07 08 06 00 00 	movl   $0x6,0x8(%edi,%eax,1)
    5085:	00 
    5086:	52                   	push   %edx
    5087:	57                   	push   %edi
    5088:	e8 b3 d1 ff ff       	call   2240 <_ZNSolsEs@plt>
    508d:	83 c4 0c             	add    $0xc,%esp
    5090:	6a 03                	push   $0x3
    5092:	ff 75 a4             	push   -0x5c(%ebp)
    5095:	50                   	push   %eax
    5096:	e8 45 d2 ff ff       	call   22e0 <_ZSt16__ostream_insertIcSt11char_traitsIcEERSt13basic_ostreamIT_T0_ES6_PKS3_i@plt>
    509b:	8b 0f                	mov    (%edi),%ecx
    509d:	58                   	pop    %eax
    509e:	5a                   	pop    %edx
    509f:	0f bf 56 fc          	movswl -0x4(%esi),%edx
    50a3:	8b 41 f4             	mov    -0xc(%ecx),%eax
    50a6:	c7 44 07 08 06 00 00 	movl   $0x6,0x8(%edi,%eax,1)
    50ad:	00 
    50ae:	52                   	push   %edx
    50af:	57                   	push   %edi
    50b0:	e8 8b d1 ff ff       	call   2240 <_ZNSolsEs@plt>
    50b5:	83 c4 0c             	add    $0xc,%esp
    50b8:	6a 03                	push   $0x3
    50ba:	ff 75 a4             	push   -0x5c(%ebp)
    50bd:	50                   	push   %eax
    50be:	e8 1d d2 ff ff       	call   22e0 <_ZSt16__ostream_insertIcSt11char_traitsIcEERSt13basic_ostreamIT_T0_ES6_PKS3_i@plt>
    50c3:	8d 4e fa             	lea    -0x6(%esi),%ecx
    50c6:	83 ee 08             	sub    $0x8,%esi
    50c9:	89 4d a0             	mov    %ecx,-0x60(%ebp)
    50cc:	59                   	pop    %ecx
    50cd:	58                   	pop    %eax
    50ce:	8b 07                	mov    (%edi),%eax
    50d0:	0f bf 4e 02          	movswl 0x2(%esi),%ecx
    50d4:	8b 50 f4             	mov    -0xc(%eax),%edx
    50d7:	c7 44 17 08 06 00 00 	movl   $0x6,0x8(%edi,%edx,1)
    50de:	00 
    50df:	51                   	push   %ecx
    50e0:	57                   	push   %edi
    50e1:	e8 5a d1 ff ff       	call   2240 <_ZNSolsEs@plt>
    50e6:	83 c4 0c             	add    $0xc,%esp
    50e9:	6a 03                	push   $0x3
    50eb:	ff 75 a4             	push   -0x5c(%ebp)
    50ee:	50                   	push   %eax
    50ef:	e8 ec d1 ff ff       	call   22e0 <_ZSt16__ostream_insertIcSt11char_traitsIcEERSt13basic_ostreamIT_T0_ES6_PKS3_i@plt>
    50f4:	8b 45 a0             	mov    -0x60(%ebp),%eax
    50f7:	83 c4 10             	add    $0x10,%esp
    50fa:	39 45 9c             	cmp    %eax,-0x64(%ebp)
    50fd:	0f 85 48 ff ff ff    	jne    504b <.L147+0x1b>
    5103:	e9 cd fd ff ff       	jmp    4ed5 <.L139>
    5108:	2e 8d b4 26 00 00 00 	lea    %cs:0x0(%esi,%eiz,1),%esi
    510f:	00 

00005110 <.L146>:
    5110:	8d 75 a8             	lea    -0x58(%ebp),%esi
    5113:	8d 93 7f c1 ff ff    	lea    -0x3e81(%ebx),%edx
    5119:	c5 fd 7f 45 a8       	vmovdqa %ymm0,-0x58(%ebp)
    511e:	8b bb 24 01 00 00    	mov    0x124(%ebx),%edi
    5124:	89 75 9c             	mov    %esi,-0x64(%ebp)
    5127:	89 55 a4             	mov    %edx,-0x5c(%ebp)
    512a:	8d 75 c7             	lea    -0x39(%ebp),%esi
    512d:	c5 f8 77             	vzeroupper
    5130:	8b 0f                	mov    (%edi),%ecx
    5132:	0f be 16             	movsbl (%esi),%edx
    5135:	83 ec 08             	sub    $0x8,%esp
    5138:	8b 41 f4             	mov    -0xc(%ecx),%eax
    513b:	c7 44 07 08 03 00 00 	movl   $0x3,0x8(%edi,%eax,1)
    5142:	00 
    5143:	52                   	push   %edx
    5144:	57                   	push   %edi
    5145:	e8 76 d2 ff ff       	call   23c0 <_ZNSolsEi@plt>
    514a:	83 c4 0c             	add    $0xc,%esp
    514d:	6a 03                	push   $0x3
    514f:	ff 75 a4             	push   -0x5c(%ebp)
    5152:	50                   	push   %eax
    5153:	e8 88 d1 ff ff       	call   22e0 <_ZSt16__ostream_insertIcSt11char_traitsIcEERSt13basic_ostreamIT_T0_ES6_PKS3_i@plt>
    5158:	8b 0f                	mov    (%edi),%ecx
    515a:	58                   	pop    %eax
    515b:	5a                   	pop    %edx
    515c:	0f be 56 ff          	movsbl -0x1(%esi),%edx
    5160:	8b 41 f4             	mov    -0xc(%ecx),%eax
    5163:	c7 44 07 08 03 00 00 	movl   $0x3,0x8(%edi,%eax,1)
    516a:	00 
    516b:	52                   	push   %edx
    516c:	57                   	push   %edi
    516d:	e8 4e d2 ff ff       	call   23c0 <_ZNSolsEi@plt>
    5172:	83 c4 0c             	add    $0xc,%esp
    5175:	6a 03                	push   $0x3
    5177:	ff 75 a4             	push   -0x5c(%ebp)
    517a:	50                   	push   %eax
    517b:	e8 60 d1 ff ff       	call   22e0 <_ZSt16__ostream_insertIcSt11char_traitsIcEERSt13basic_ostreamIT_T0_ES6_PKS3_i@plt>
    5180:	59                   	pop    %ecx
    5181:	8b 0f                	mov    (%edi),%ecx
    5183:	0f be 56 fe          	movsbl -0x2(%esi),%edx
    5187:	58                   	pop    %eax
    5188:	8b 41 f4             	mov    -0xc(%ecx),%eax
    518b:	c7 44 07 08 03 00 00 	movl   $0x3,0x8(%edi,%eax,1)
    5192:	00 
    5193:	52                   	push   %edx
    5194:	57                   	push   %edi
    5195:	e8 26 d2 ff ff       	call   23c0 <_ZNSolsEi@plt>
    519a:	83 c4 0c             	add    $0xc,%esp
    519d:	6a 03                	push   $0x3
    519f:	ff 75 a4             	push   -0x5c(%ebp)
    51a2:	50                   	push   %eax
    51a3:	e8 38 d1 ff ff       	call   22e0 <_ZSt16__ostream_insertIcSt11char_traitsIcEERSt13basic_ostreamIT_T0_ES6_PKS3_i@plt>
    51a8:	8d 4e fd             	lea    -0x3(%esi),%ecx
    51ab:	83 ee 04             	sub    $0x4,%esi
    51ae:	89 4d a0             	mov    %ecx,-0x60(%ebp)
    51b1:	58                   	pop    %eax
    51b2:	8b 07                	mov    (%edi),%eax
    51b4:	5a                   	pop    %edx
    51b5:	0f be 4e 01          	movsbl 0x1(%esi),%ecx
    51b9:	8b 50 f4             	mov    -0xc(%eax),%edx
    51bc:	c7 44 17 08 03 00 00 	movl   $0x3,0x8(%edi,%edx,1)
    51c3:	00 
    51c4:	51                   	push   %ecx
    51c5:	57                   	push   %edi
    51c6:	e8 f5 d1 ff ff       	call   23c0 <_ZNSolsEi@plt>
    51cb:	83 c4 0c             	add    $0xc,%esp
    51ce:	6a 03                	push   $0x3
    51d0:	ff 75 a4             	push   -0x5c(%ebp)
    51d3:	50                   	push   %eax
    51d4:	e8 07 d1 ff ff       	call   22e0 <_ZSt16__ostream_insertIcSt11char_traitsIcEERSt13basic_ostreamIT_T0_ES6_PKS3_i@plt>
    51d9:	8b 45 a0             	mov    -0x60(%ebp),%eax
    51dc:	83 c4 10             	add    $0x10,%esp
    51df:	39 45 9c             	cmp    %eax,-0x64(%ebp)
    51e2:	0f 85 48 ff ff ff    	jne    5130 <.L146+0x20>
    51e8:	e9 e8 fc ff ff       	jmp    4ed5 <.L139>
    51ed:	8d 76 00             	lea    0x0(%esi),%esi

000051f0 <.L145>:
    51f0:	8d 75 a8             	lea    -0x58(%ebp),%esi
    51f3:	8d 93 7f c1 ff ff    	lea    -0x3e81(%ebx),%edx
    51f9:	c5 fd 7f 45 a8       	vmovdqa %ymm0,-0x58(%ebp)
    51fe:	8b bb 24 01 00 00    	mov    0x124(%ebx),%edi
    5204:	89 75 9c             	mov    %esi,-0x64(%ebp)
    5207:	89 55 a4             	mov    %edx,-0x5c(%ebp)
    520a:	8d 75 c7             	lea    -0x39(%ebp),%esi
    520d:	c5 f8 77             	vzeroupper
    5210:	8b 0f                	mov    (%edi),%ecx
    5212:	0f b6 16             	movzbl (%esi),%edx
    5215:	83 ec 08             	sub    $0x8,%esp
    5218:	8b 41 f4             	mov    -0xc(%ecx),%eax
    521b:	c7 44 07 08 03 00 00 	movl   $0x3,0x8(%edi,%eax,1)
    5222:	00 
    5223:	52                   	push   %edx
    5224:	57                   	push   %edi
    5225:	e8 96 d1 ff ff       	call   23c0 <_ZNSolsEi@plt>
    522a:	83 c4 0c             	add    $0xc,%esp
    522d:	6a 03                	push   $0x3
    522f:	ff 75 a4             	push   -0x5c(%ebp)
    5232:	50                   	push   %eax
    5233:	e8 a8 d0 ff ff       	call   22e0 <_ZSt16__ostream_insertIcSt11char_traitsIcEERSt13basic_ostreamIT_T0_ES6_PKS3_i@plt>
    5238:	59                   	pop    %ecx
    5239:	8b 0f                	mov    (%edi),%ecx
    523b:	0f b6 56 ff          	movzbl -0x1(%esi),%edx
    523f:	58                   	pop    %eax
    5240:	8b 41 f4             	mov    -0xc(%ecx),%eax
    5243:	c7 44 07 08 03 00 00 	movl   $0x3,0x8(%edi,%eax,1)
    524a:	00 
    524b:	52                   	push   %edx
    524c:	57                   	push   %edi
    524d:	e8 6e d1 ff ff       	call   23c0 <_ZNSolsEi@plt>
    5252:	83 c4 0c             	add    $0xc,%esp
    5255:	6a 03                	push   $0x3
    5257:	ff 75 a4             	push   -0x5c(%ebp)
    525a:	50                   	push   %eax
    525b:	e8 80 d0 ff ff       	call   22e0 <_ZSt16__ostream_insertIcSt11char_traitsIcEERSt13basic_ostreamIT_T0_ES6_PKS3_i@plt>
    5260:	8b 0f                	mov    (%edi),%ecx
    5262:	58                   	pop    %eax
    5263:	5a                   	pop    %edx
    5264:	0f b6 56 fe          	movzbl -0x2(%esi),%edx
    5268:	8b 41 f4             	mov    -0xc(%ecx),%eax
    526b:	c7 44 07 08 03 00 00 	movl   $0x3,0x8(%edi,%eax,1)
    5272:	00 
    5273:	52                   	push   %edx
    5274:	57                   	push   %edi
    5275:	e8 46 d1 ff ff       	call   23c0 <_ZNSolsEi@plt>
    527a:	83 c4 0c             	add    $0xc,%esp
    527d:	6a 03                	push   $0x3
    527f:	ff 75 a4             	push   -0x5c(%ebp)
    5282:	50                   	push   %eax
    5283:	e8 58 d0 ff ff       	call   22e0 <_ZSt16__ostream_insertIcSt11char_traitsIcEERSt13basic_ostreamIT_T0_ES6_PKS3_i@plt>
    5288:	8d 4e fd             	lea    -0x3(%esi),%ecx
    528b:	83 ee 04             	sub    $0x4,%esi
    528e:	89 4d a0             	mov    %ecx,-0x60(%ebp)
    5291:	59                   	pop    %ecx
    5292:	58                   	pop    %eax
    5293:	8b 07                	mov    (%edi),%eax
    5295:	0f b6 4e 01          	movzbl 0x1(%esi),%ecx
    5299:	8b 50 f4             	mov    -0xc(%eax),%edx
    529c:	c7 44 17 08 03 00 00 	movl   $0x3,0x8(%edi,%edx,1)
    52a3:	00 
    52a4:	51                   	push   %ecx
    52a5:	57                   	push   %edi
    52a6:	e8 15 d1 ff ff       	call   23c0 <_ZNSolsEi@plt>
    52ab:	83 c4 0c             	add    $0xc,%esp
    52ae:	6a 03                	push   $0x3
    52b0:	ff 75 a4             	push   -0x5c(%ebp)
    52b3:	50                   	push   %eax
    52b4:	e8 27 d0 ff ff       	call   22e0 <_ZSt16__ostream_insertIcSt11char_traitsIcEERSt13basic_ostreamIT_T0_ES6_PKS3_i@plt>
    52b9:	8b 45 a0             	mov    -0x60(%ebp),%eax
    52bc:	83 c4 10             	add    $0x10,%esp
    52bf:	39 45 9c             	cmp    %eax,-0x64(%ebp)
    52c2:	0f 85 48 ff ff ff    	jne    5210 <.L145+0x20>
    52c8:	e9 08 fc ff ff       	jmp    4ed5 <.L139>
    52cd:	8d 76 00             	lea    0x0(%esi),%esi

000052d0 <.L144>:
    52d0:	8d 75 a8             	lea    -0x58(%ebp),%esi
    52d3:	8d 93 7f c1 ff ff    	lea    -0x3e81(%ebx),%edx
    52d9:	8b bb 24 01 00 00    	mov    0x124(%ebx),%edi
    52df:	89 75 9c             	mov    %esi,-0x64(%ebp)
    52e2:	89 55 a4             	mov    %edx,-0x5c(%ebp)
    52e5:	8d 75 c6             	lea    -0x3a(%ebp),%esi
    52e8:	c5 f8 77             	vzeroupper
    52eb:	8b 0f                	mov    (%edi),%ecx
    52ed:	0f b7 16             	movzwl (%esi),%edx
    52f0:	83 ec 08             	sub    $0x8,%esp
    52f3:	8b 41 f4             	mov    -0xc(%ecx),%eax
    52f6:	c7 44 07 08 06 00 00 	movl   $0x6,0x8(%edi,%eax,1)
    52fd:	00 
    52fe:	52                   	push   %edx
    52ff:	57                   	push   %edi
    5300:	e8 7b ce ff ff       	call   2180 <_ZNSo9_M_insertImEERSoT_@plt>
    5305:	83 c4 0c             	add    $0xc,%esp
    5308:	6a 03                	push   $0x3
    530a:	ff 75 a4             	push   -0x5c(%ebp)
    530d:	50                   	push   %eax
    530e:	e8 cd cf ff ff       	call   22e0 <_ZSt16__ostream_insertIcSt11char_traitsIcEERSt13basic_ostreamIT_T0_ES6_PKS3_i@plt>
    5313:	8b 0f                	mov    (%edi),%ecx
    5315:	58                   	pop    %eax
    5316:	5a                   	pop    %edx
    5317:	0f b7 56 fe          	movzwl -0x2(%esi),%edx
    531b:	8b 41 f4             	mov    -0xc(%ecx),%eax
    531e:	c7 44 07 08 06 00 00 	movl   $0x6,0x8(%edi,%eax,1)
    5325:	00 
    5326:	52                   	push   %edx
    5327:	57                   	push   %edi
    5328:	e8 53 ce ff ff       	call   2180 <_ZNSo9_M_insertImEERSoT_@plt>
    532d:	83 c4 0c             	add    $0xc,%esp
    5330:	6a 03                	push   $0x3
    5332:	ff 75 a4             	push   -0x5c(%ebp)
    5335:	50                   	push   %eax
    5336:	e8 a5 cf ff ff       	call   22e0 <_ZSt16__ostream_insertIcSt11char_traitsIcEERSt13basic_ostreamIT_T0_ES6_PKS3_i@plt>
    533b:	59                   	pop    %ecx
    533c:	8b 0f                	mov    (%edi),%ecx
    533e:	0f b7 56 fc          	movzwl -0x4(%esi),%edx
    5342:	58                   	pop    %eax
    5343:	8b 41 f4             	mov    -0xc(%ecx),%eax
    5346:	c7 44 07 08 06 00 00 	movl   $0x6,0x8(%edi,%eax,1)
    534d:	00 
    534e:	52                   	push   %edx
    534f:	57                   	push   %edi
    5350:	e8 2b ce ff ff       	call   2180 <_ZNSo9_M_insertImEERSoT_@plt>
    5355:	83 c4 0c             	add    $0xc,%esp
    5358:	6a 03                	push   $0x3
    535a:	ff 75 a4             	push   -0x5c(%ebp)
    535d:	50                   	push   %eax
    535e:	e8 7d cf ff ff       	call   22e0 <_ZSt16__ostream_insertIcSt11char_traitsIcEERSt13basic_ostreamIT_T0_ES6_PKS3_i@plt>
    5363:	8d 4e fa             	lea    -0x6(%esi),%ecx
    5366:	83 ee 08             	sub    $0x8,%esi
    5369:	89 4d a0             	mov    %ecx,-0x60(%ebp)
    536c:	58                   	pop    %eax
    536d:	8b 07                	mov    (%edi),%eax
    536f:	5a                   	pop    %edx
    5370:	0f b7 4e 02          	movzwl 0x2(%esi),%ecx
    5374:	8b 50 f4             	mov    -0xc(%eax),%edx
    5377:	c7 44 17 08 06 00 00 	movl   $0x6,0x8(%edi,%edx,1)
    537e:	00 
    537f:	51                   	push   %ecx
    5380:	57                   	push   %edi
    5381:	e8 fa cd ff ff       	call   2180 <_ZNSo9_M_insertImEERSoT_@plt>
    5386:	83 c4 0c             	add    $0xc,%esp
    5389:	6a 03                	push   $0x3
    538b:	ff 75 a4             	push   -0x5c(%ebp)
    538e:	50                   	push   %eax
    538f:	e8 4c cf ff ff       	call   22e0 <_ZSt16__ostream_insertIcSt11char_traitsIcEERSt13basic_ostreamIT_T0_ES6_PKS3_i@plt>
    5394:	8b 45 a0             	mov    -0x60(%ebp),%eax
    5397:	83 c4 10             	add    $0x10,%esp
    539a:	39 45 9c             	cmp    %eax,-0x64(%ebp)
    539d:	0f 85 48 ff ff ff    	jne    52eb <.L144+0x1b>
    53a3:	e9 2d fb ff ff       	jmp    4ed5 <.L139>
    53a8:	2e 8d b4 26 00 00 00 	lea    %cs:0x0(%esi,%eiz,1),%esi
    53af:	00 

000053b0 <.L143>:
    53b0:	8d 75 a8             	lea    -0x58(%ebp),%esi
    53b3:	8d 8b 7f c1 ff ff    	lea    -0x3e81(%ebx),%ecx
    53b9:	8b bb 24 01 00 00    	mov    0x124(%ebx),%edi
    53bf:	89 75 9c             	mov    %esi,-0x64(%ebp)
    53c2:	89 4d a4             	mov    %ecx,-0x5c(%ebp)
    53c5:	8d 75 c4             	lea    -0x3c(%ebp),%esi
    53c8:	c5 f8 77             	vzeroupper
    53cb:	8b 07                	mov    (%edi),%eax
    53cd:	83 ec 08             	sub    $0x8,%esp
    53d0:	8b 50 f4             	mov    -0xc(%eax),%edx
    53d3:	c7 44 17 08 0a 00 00 	movl   $0xa,0x8(%edi,%edx,1)
    53da:	00 
    53db:	ff 36                	push   (%esi)
    53dd:	57                   	push   %edi
    53de:	e8 9d cd ff ff       	call   2180 <_ZNSo9_M_insertImEERSoT_@plt>
    53e3:	83 c4 0c             	add    $0xc,%esp
    53e6:	6a 03                	push   $0x3
    53e8:	ff 75 a4             	push   -0x5c(%ebp)
    53eb:	50                   	push   %eax
    53ec:	e8 ef ce ff ff       	call   22e0 <_ZSt16__ostream_insertIcSt11char_traitsIcEERSt13basic_ostreamIT_T0_ES6_PKS3_i@plt>
    53f1:	59                   	pop    %ecx
    53f2:	8b 0f                	mov    (%edi),%ecx
    53f4:	58                   	pop    %eax
    53f5:	8b 41 f4             	mov    -0xc(%ecx),%eax
    53f8:	c7 44 07 08 0a 00 00 	movl   $0xa,0x8(%edi,%eax,1)
    53ff:	00 
    5400:	ff 76 fc             	push   -0x4(%esi)
    5403:	57                   	push   %edi
    5404:	e8 77 cd ff ff       	call   2180 <_ZNSo9_M_insertImEERSoT_@plt>
    5409:	83 c4 0c             	add    $0xc,%esp
    540c:	6a 03                	push   $0x3
    540e:	ff 75 a4             	push   -0x5c(%ebp)
    5411:	50                   	push   %eax
    5412:	e8 c9 ce ff ff       	call   22e0 <_ZSt16__ostream_insertIcSt11char_traitsIcEERSt13basic_ostreamIT_T0_ES6_PKS3_i@plt>
    5417:	58                   	pop    %eax
    5418:	5a                   	pop    %edx
    5419:	8b 17                	mov    (%edi),%edx
    541b:	8b 4a f4             	mov    -0xc(%edx),%ecx
    541e:	c7 44 0f 08 0a 00 00 	movl   $0xa,0x8(%edi,%ecx,1)
    5425:	00 
    5426:	ff 76 f8             	push   -0x8(%esi)
    5429:	57                   	push   %edi
    542a:	e8 51 cd ff ff       	call   2180 <_ZNSo9_M_insertImEERSoT_@plt>
    542f:	83 c4 0c             	add    $0xc,%esp
    5432:	6a 03                	push   $0x3
    5434:	ff 75 a4             	push   -0x5c(%ebp)
    5437:	50                   	push   %eax
    5438:	e8 a3 ce ff ff       	call   22e0 <_ZSt16__ostream_insertIcSt11char_traitsIcEERSt13basic_ostreamIT_T0_ES6_PKS3_i@plt>
    543d:	8b 17                	mov    (%edi),%edx
    543f:	8d 46 f4             	lea    -0xc(%esi),%eax
    5442:	83 ee 10             	sub    $0x10,%esi
    5445:	89 45 a0             	mov    %eax,-0x60(%ebp)
    5448:	59                   	pop    %ecx
    5449:	58                   	pop    %eax
    544a:	8b 4a f4             	mov    -0xc(%edx),%ecx
    544d:	c7 44 0f 08 0a 00 00 	movl   $0xa,0x8(%edi,%ecx,1)
    5454:	00 
    5455:	ff 76 04             	push   0x4(%esi)
    5458:	57                   	push   %edi
    5459:	e8 22 cd ff ff       	call   2180 <_ZNSo9_M_insertImEERSoT_@plt>
    545e:	83 c4 0c             	add    $0xc,%esp
    5461:	6a 03                	push   $0x3
    5463:	ff 75 a4             	push   -0x5c(%ebp)
    5466:	50                   	push   %eax
    5467:	e8 74 ce ff ff       	call   22e0 <_ZSt16__ostream_insertIcSt11char_traitsIcEERSt13basic_ostreamIT_T0_ES6_PKS3_i@plt>
    546c:	8b 45 a0             	mov    -0x60(%ebp),%eax
    546f:	83 c4 10             	add    $0x10,%esp
    5472:	39 45 9c             	cmp    %eax,-0x64(%ebp)
    5475:	0f 85 50 ff ff ff    	jne    53cb <.L143+0x1b>
    547b:	e9 55 fa ff ff       	jmp    4ed5 <.L139>
    5480:	c5 f8 77             	vzeroupper
    5483:	e8 18 55 00 00       	call   a9a0 <__stack_chk_fail_local>
    5488:	2e 8d b4 26 00 00 00 	lea    %cs:0x0(%esi,%eiz,1),%esi
    548f:	00 

00005490 <_ZN2ez2ii10print_f256ERSoDv8_f>:
    5490:	8d 4c 24 04          	lea    0x4(%esp),%ecx
    5494:	83 e4 e0             	and    $0xffffffe0,%esp
    5497:	ff 71 fc             	push   -0x4(%ecx)
    549a:	55                   	push   %ebp
    549b:	89 e5                	mov    %esp,%ebp
    549d:	57                   	push   %edi
    549e:	56                   	push   %esi
    549f:	53                   	push   %ebx
    54a0:	e8 8b e3 ff ff       	call   3830 <__x86.get_pc_thunk.bx>
    54a5:	81 c3 17 9a 00 00    	add    $0x9a17,%ebx
    54ab:	51                   	push   %ecx
    54ac:	8d 45 c8             	lea    -0x38(%ebp),%eax
    54af:	8d 93 7f c1 ff ff    	lea    -0x3e81(%ebx),%edx
    54b5:	8d 7d e4             	lea    -0x1c(%ebp),%edi
    54b8:	83 ec 48             	sub    $0x48,%esp
    54bb:	c5 fc 29 45 c8       	vmovaps %ymm0,-0x38(%ebp)
    54c0:	8b b3 24 01 00 00    	mov    0x124(%ebx),%esi
    54c6:	89 45 bc             	mov    %eax,-0x44(%ebp)
    54c9:	89 55 c4             	mov    %edx,-0x3c(%ebp)
    54cc:	c5 f8 77             	vzeroupper
    54cf:	8b 0e                	mov    (%esi),%ecx
    54d1:	83 ec 0c             	sub    $0xc,%esp
    54d4:	d9 07                	flds   (%edi)
    54d6:	8b 51 f4             	mov    -0xc(%ecx),%edx
    54d9:	01 f2                	add    %esi,%edx
    54db:	8b 42 0c             	mov    0xc(%edx),%eax
    54de:	25 fb fe ff ff       	and    $0xfffffefb,%eax
    54e3:	83 c8 04             	or     $0x4,%eax
    54e6:	89 42 0c             	mov    %eax,0xc(%edx)
    54e9:	dd 1c 24             	fstpl  (%esp)
    54ec:	56                   	push   %esi
    54ed:	e8 6e ce ff ff       	call   2360 <_ZNSo9_M_insertIdEERSoT_@plt>
    54f2:	83 c4 0c             	add    $0xc,%esp
    54f5:	6a 03                	push   $0x3
    54f7:	ff 75 c4             	push   -0x3c(%ebp)
    54fa:	50                   	push   %eax
    54fb:	e8 e0 cd ff ff       	call   22e0 <_ZSt16__ostream_insertIcSt11char_traitsIcEERSt13basic_ostreamIT_T0_ES6_PKS3_i@plt>
    5500:	8b 0e                	mov    (%esi),%ecx
    5502:	d9 47 fc             	flds   -0x4(%edi)
    5505:	8b 51 f4             	mov    -0xc(%ecx),%edx
    5508:	01 f2                	add    %esi,%edx
    550a:	8b 42 0c             	mov    0xc(%edx),%eax
    550d:	25 fb fe ff ff       	and    $0xfffffefb,%eax
    5512:	83 c8 04             	or     $0x4,%eax
    5515:	89 42 0c             	mov    %eax,0xc(%edx)
    5518:	dd 5c 24 04          	fstpl  0x4(%esp)
    551c:	89 34 24             	mov    %esi,(%esp)
    551f:	e8 3c ce ff ff       	call   2360 <_ZNSo9_M_insertIdEERSoT_@plt>
    5524:	83 c4 0c             	add    $0xc,%esp
    5527:	6a 03                	push   $0x3
    5529:	ff 75 c4             	push   -0x3c(%ebp)
    552c:	50                   	push   %eax
    552d:	e8 ae cd ff ff       	call   22e0 <_ZSt16__ostream_insertIcSt11char_traitsIcEERSt13basic_ostreamIT_T0_ES6_PKS3_i@plt>
    5532:	8b 0e                	mov    (%esi),%ecx
    5534:	d9 47 f8             	flds   -0x8(%edi)
    5537:	8b 51 f4             	mov    -0xc(%ecx),%edx
    553a:	01 f2                	add    %esi,%edx
    553c:	8b 42 0c             	mov    0xc(%edx),%eax
    553f:	25 fb fe ff ff       	and    $0xfffffefb,%eax
    5544:	83 c8 04             	or     $0x4,%eax
    5547:	89 42 0c             	mov    %eax,0xc(%edx)
    554a:	dd 5c 24 04          	fstpl  0x4(%esp)
    554e:	89 34 24             	mov    %esi,(%esp)
    5551:	e8 0a ce ff ff       	call   2360 <_ZNSo9_M_insertIdEERSoT_@plt>
    5556:	83 c4 0c             	add    $0xc,%esp
    5559:	6a 03                	push   $0x3
    555b:	ff 75 c4             	push   -0x3c(%ebp)
    555e:	50                   	push   %eax
    555f:	e8 7c cd ff ff       	call   22e0 <_ZSt16__ostream_insertIcSt11char_traitsIcEERSt13basic_ostreamIT_T0_ES6_PKS3_i@plt>
    5564:	8b 16                	mov    (%esi),%edx
    5566:	8d 4f f4             	lea    -0xc(%edi),%ecx
    5569:	d9 47 f4             	flds   -0xc(%edi)
    556c:	89 4d c0             	mov    %ecx,-0x40(%ebp)
    556f:	83 ef 10             	sub    $0x10,%edi
    5572:	8b 4a f4             	mov    -0xc(%edx),%ecx
    5575:	01 f1                	add    %esi,%ecx
    5577:	8b 41 0c             	mov    0xc(%ecx),%eax
    557a:	25 fb fe ff ff       	and    $0xfffffefb,%eax
    557f:	83 c8 04             	or     $0x4,%eax
    5582:	89 41 0c             	mov    %eax,0xc(%ecx)
    5585:	dd 5c 24 04          	fstpl  0x4(%esp)
    5589:	89 34 24             	mov    %esi,(%esp)
    558c:	e8 cf cd ff ff       	call   2360 <_ZNSo9_M_insertIdEERSoT_@plt>
    5591:	83 c4 0c             	add    $0xc,%esp
    5594:	6a 03                	push   $0x3
    5596:	ff 75 c4             	push   -0x3c(%ebp)
    5599:	50                   	push   %eax
    559a:	e8 41 cd ff ff       	call   22e0 <_ZSt16__ostream_insertIcSt11char_traitsIcEERSt13basic_ostreamIT_T0_ES6_PKS3_i@plt>
    559f:	8b 55 c0             	mov    -0x40(%ebp),%edx
    55a2:	83 c4 10             	add    $0x10,%esp
    55a5:	39 55 bc             	cmp    %edx,-0x44(%ebp)
    55a8:	0f 85 21 ff ff ff    	jne    54cf <_ZN2ez2ii10print_f256ERSoDv8_f+0x3f>
    55ae:	8d 65 f0             	lea    -0x10(%ebp),%esp
    55b1:	59                   	pop    %ecx
    55b2:	5b                   	pop    %ebx
    55b3:	5e                   	pop    %esi
    55b4:	5f                   	pop    %edi
    55b5:	5d                   	pop    %ebp
    55b6:	8d 61 fc             	lea    -0x4(%ecx),%esp
    55b9:	c3                   	ret
    55ba:	8d b6 00 00 00 00    	lea    0x0(%esi),%esi

000055c0 <_ZN2ez2ii10print_d256ERSoDv4_d>:
    55c0:	8d 4c 24 04          	lea    0x4(%esp),%ecx
    55c4:	83 e4 e0             	and    $0xffffffe0,%esp
    55c7:	ff 71 fc             	push   -0x4(%ecx)
    55ca:	55                   	push   %ebp
    55cb:	89 e5                	mov    %esp,%ebp
    55cd:	57                   	push   %edi
    55ce:	56                   	push   %esi
    55cf:	53                   	push   %ebx
    55d0:	e8 5b e2 ff ff       	call   3830 <__x86.get_pc_thunk.bx>
    55d5:	81 c3 e7 98 00 00    	add    $0x98e7,%ebx
    55db:	51                   	push   %ecx
    55dc:	8d 45 a8             	lea    -0x58(%ebp),%eax
    55df:	8d 93 7f c1 ff ff    	lea    -0x3e81(%ebx),%edx
    55e5:	8d 75 c8             	lea    -0x38(%ebp),%esi
    55e8:	83 ec 48             	sub    $0x48,%esp
    55eb:	c5 fd 29 45 c8       	vmovapd %ymm0,-0x38(%ebp)
    55f0:	8b bb 24 01 00 00    	mov    0x124(%ebx),%edi
    55f6:	89 45 c4             	mov    %eax,-0x3c(%ebp)
    55f9:	89 55 c0             	mov    %edx,-0x40(%ebp)
    55fc:	c5 f8 77             	vzeroupper
    55ff:	8b 0f                	mov    (%edi),%ecx
    5601:	83 ec 04             	sub    $0x4,%esp
    5604:	83 ee 08             	sub    $0x8,%esi
    5607:	8b 51 f4             	mov    -0xc(%ecx),%edx
    560a:	01 fa                	add    %edi,%edx
    560c:	8b 42 0c             	mov    0xc(%edx),%eax
    560f:	25 fb fe ff ff       	and    $0xfffffefb,%eax
    5614:	83 c8 04             	or     $0x4,%eax
    5617:	89 42 0c             	mov    %eax,0xc(%edx)
    561a:	ff 76 24             	push   0x24(%esi)
    561d:	ff 76 20             	push   0x20(%esi)
    5620:	57                   	push   %edi
    5621:	e8 3a cd ff ff       	call   2360 <_ZNSo9_M_insertIdEERSoT_@plt>
    5626:	83 c4 0c             	add    $0xc,%esp
    5629:	6a 03                	push   $0x3
    562b:	ff 75 c0             	push   -0x40(%ebp)
    562e:	50                   	push   %eax
    562f:	e8 ac cc ff ff       	call   22e0 <_ZSt16__ostream_insertIcSt11char_traitsIcEERSt13basic_ostreamIT_T0_ES6_PKS3_i@plt>
    5634:	83 c4 10             	add    $0x10,%esp
    5637:	39 75 c4             	cmp    %esi,-0x3c(%ebp)
    563a:	75 c3                	jne    55ff <_ZN2ez2ii10print_d256ERSoDv4_d+0x3f>
    563c:	8d 65 f0             	lea    -0x10(%ebp),%esp
    563f:	59                   	pop    %ecx
    5640:	5b                   	pop    %ebx
    5641:	5e                   	pop    %esi
    5642:	5f                   	pop    %edi
    5643:	5d                   	pop    %ebp
    5644:	8d 61 fc             	lea    -0x4(%ecx),%esp
    5647:	c3                   	ret
    5648:	2e 8d b4 26 00 00 00 	lea    %cs:0x0(%esi,%eiz,1),%esi
    564f:	00 

00005650 <_ZN2ez2iilsERSoDv2_x>:
    5650:	53                   	push   %ebx
    5651:	83 ec 14             	sub    $0x14,%esp
    5654:	8b 5c 24 1c          	mov    0x1c(%esp),%ebx
    5658:	53                   	push   %ebx
    5659:	e8 e2 e9 ff ff       	call   4040 <_ZN2ez2ii10print_i128ERSoDv2_x>
    565e:	83 c4 18             	add    $0x18,%esp
    5661:	89 d8                	mov    %ebx,%eax
    5663:	5b                   	pop    %ebx
    5664:	c3                   	ret
    5665:	2e 8d b4 26 00 00 00 	lea    %cs:0x0(%esi,%eiz,1),%esi
    566c:	00 
    566d:	8d 76 00             	lea    0x0(%esi),%esi

00005670 <_ZN2ez2iilsERSoDv4_f>:
    5670:	55                   	push   %ebp
    5671:	57                   	push   %edi
    5672:	56                   	push   %esi
    5673:	53                   	push   %ebx
    5674:	e8 b7 e1 ff ff       	call   3830 <__x86.get_pc_thunk.bx>
    5679:	81 c3 43 98 00 00    	add    $0x9843,%ebx
    567f:	83 ec 3c             	sub    $0x3c,%esp
    5682:	8b ab 24 01 00 00    	mov    0x124(%ebx),%ebp
    5688:	8d bb 7f c1 ff ff    	lea    -0x3e81(%ebx),%edi
    568e:	8b 44 24 50          	mov    0x50(%esp),%eax
    5692:	89 e2                	mov    %esp,%edx
    5694:	8d 74 24 10          	lea    0x10(%esp),%esi
    5698:	89 44 24 0c          	mov    %eax,0xc(%esp)
    569c:	65 a1 14 00 00 00    	mov    %gs:0x14,%eax
    56a2:	89 44 24 2c          	mov    %eax,0x2c(%esp)
    56a6:	31 c0                	xor    %eax,%eax
    56a8:	89 54 24 08          	mov    %edx,0x8(%esp)
    56ac:	c5 f8 29 44 24 10    	vmovaps %xmm0,0x10(%esp)
    56b2:	d9 46 0c             	flds   0xc(%esi)
    56b5:	8b 4d 00             	mov    0x0(%ebp),%ecx
    56b8:	83 ec 0c             	sub    $0xc,%esp
    56bb:	83 ee 04             	sub    $0x4,%esi
    56be:	8b 51 f4             	mov    -0xc(%ecx),%edx
    56c1:	01 ea                	add    %ebp,%edx
    56c3:	8b 42 0c             	mov    0xc(%edx),%eax
    56c6:	25 fb fe ff ff       	and    $0xfffffefb,%eax
    56cb:	83 c8 04             	or     $0x4,%eax
    56ce:	89 42 0c             	mov    %eax,0xc(%edx)
    56d1:	dd 1c 24             	fstpl  (%esp)
    56d4:	55                   	push   %ebp
    56d5:	e8 86 cc ff ff       	call   2360 <_ZNSo9_M_insertIdEERSoT_@plt>
    56da:	83 c4 0c             	add    $0xc,%esp
    56dd:	6a 03                	push   $0x3
    56df:	57                   	push   %edi
    56e0:	50                   	push   %eax
    56e1:	e8 fa cb ff ff       	call   22e0 <_ZSt16__ostream_insertIcSt11char_traitsIcEERSt13basic_ostreamIT_T0_ES6_PKS3_i@plt>
    56e6:	83 c4 10             	add    $0x10,%esp
    56e9:	39 74 24 08          	cmp    %esi,0x8(%esp)
    56ed:	75 c3                	jne    56b2 <_ZN2ez2iilsERSoDv4_f+0x42>
    56ef:	8b 44 24 2c          	mov    0x2c(%esp),%eax
    56f3:	65 2b 05 14 00 00 00 	sub    %gs:0x14,%eax
    56fa:	75 0c                	jne    5708 <_ZN2ez2iilsERSoDv4_f+0x98>
    56fc:	8b 44 24 0c          	mov    0xc(%esp),%eax
    5700:	83 c4 3c             	add    $0x3c,%esp
    5703:	5b                   	pop    %ebx
    5704:	5e                   	pop    %esi
    5705:	5f                   	pop    %edi
    5706:	5d                   	pop    %ebp
    5707:	c3                   	ret
    5708:	e8 93 52 00 00       	call   a9a0 <__stack_chk_fail_local>
    570d:	8d 76 00             	lea    0x0(%esi),%esi

00005710 <_ZN2ez2iilsERSoDv2_d>:
    5710:	57                   	push   %edi
    5711:	56                   	push   %esi
    5712:	53                   	push   %ebx
    5713:	c5 f9 15 c8          	vunpckhpd %xmm0,%xmm0,%xmm1
    5717:	e8 14 e1 ff ff       	call   3830 <__x86.get_pc_thunk.bx>
    571c:	81 c3 a0 97 00 00    	add    $0x97a0,%ebx
    5722:	83 ec 1c             	sub    $0x1c,%esp
    5725:	8b b3 24 01 00 00    	mov    0x124(%ebx),%esi
    572b:	8d bb 7f c1 ff ff    	lea    -0x3e81(%ebx),%edi
    5731:	c5 f9 29 44 24 0c    	vmovapd %xmm0,0xc(%esp)
    5737:	8b 06                	mov    (%esi),%eax
    5739:	8b 50 f4             	mov    -0xc(%eax),%edx
    573c:	01 f2                	add    %esi,%edx
    573e:	8b 4a 0c             	mov    0xc(%edx),%ecx
    5741:	81 e1 fb fe ff ff    	and    $0xfffffefb,%ecx
    5747:	83 c9 04             	or     $0x4,%ecx
    574a:	89 4a 0c             	mov    %ecx,0xc(%edx)
    574d:	c5 fb 11 0c 24       	vmovsd %xmm1,(%esp)
    5752:	56                   	push   %esi
    5753:	e8 08 cc ff ff       	call   2360 <_ZNSo9_M_insertIdEERSoT_@plt>
    5758:	83 c4 0c             	add    $0xc,%esp
    575b:	6a 03                	push   $0x3
    575d:	57                   	push   %edi
    575e:	50                   	push   %eax
    575f:	e8 7c cb ff ff       	call   22e0 <_ZSt16__ostream_insertIcSt11char_traitsIcEERSt13basic_ostreamIT_T0_ES6_PKS3_i@plt>
    5764:	8b 06                	mov    (%esi),%eax
    5766:	c5 f9 28 44 24 10    	vmovapd 0x10(%esp),%xmm0
    576c:	8b 50 f4             	mov    -0xc(%eax),%edx
    576f:	01 f2                	add    %esi,%edx
    5771:	8b 4a 0c             	mov    0xc(%edx),%ecx
    5774:	81 e1 fb fe ff ff    	and    $0xfffffefb,%ecx
    577a:	83 c9 04             	or     $0x4,%ecx
    577d:	89 4a 0c             	mov    %ecx,0xc(%edx)
    5780:	c5 fb 11 44 24 04    	vmovsd %xmm0,0x4(%esp)
    5786:	89 34 24             	mov    %esi,(%esp)
    5789:	e8 d2 cb ff ff       	call   2360 <_ZNSo9_M_insertIdEERSoT_@plt>
    578e:	83 c4 0c             	add    $0xc,%esp
    5791:	6a 03                	push   $0x3
    5793:	57                   	push   %edi
    5794:	50                   	push   %eax
    5795:	e8 46 cb ff ff       	call   22e0 <_ZSt16__ostream_insertIcSt11char_traitsIcEERSt13basic_ostreamIT_T0_ES6_PKS3_i@plt>
    579a:	8b 44 24 30          	mov    0x30(%esp),%eax
    579e:	83 c4 20             	add    $0x20,%esp
    57a1:	5b                   	pop    %ebx
    57a2:	5e                   	pop    %esi
    57a3:	5f                   	pop    %edi
    57a4:	c3                   	ret
    57a5:	2e 8d b4 26 00 00 00 	lea    %cs:0x0(%esi,%eiz,1),%esi
    57ac:	00 
    57ad:	8d 76 00             	lea    0x0(%esi),%esi

000057b0 <_ZN2ez2iilsERSoDv4_x>:
    57b0:	8d 4c 24 04          	lea    0x4(%esp),%ecx
    57b4:	83 e4 e0             	and    $0xffffffe0,%esp
    57b7:	ff 71 fc             	push   -0x4(%ecx)
    57ba:	55                   	push   %ebp
    57bb:	89 e5                	mov    %esp,%ebp
    57bd:	53                   	push   %ebx
    57be:	51                   	push   %ecx
    57bf:	83 ec 1c             	sub    $0x1c,%esp
    57c2:	8b 19                	mov    (%ecx),%ebx
    57c4:	53                   	push   %ebx
    57c5:	e8 66 f6 ff ff       	call   4e30 <_ZN2ez2ii10print_i256ERSoDv4_x>
    57ca:	83 c4 10             	add    $0x10,%esp
    57cd:	8d 65 f8             	lea    -0x8(%ebp),%esp
    57d0:	89 d8                	mov    %ebx,%eax
    57d2:	59                   	pop    %ecx
    57d3:	5b                   	pop    %ebx
    57d4:	5d                   	pop    %ebp
    57d5:	8d 61 fc             	lea    -0x4(%ecx),%esp
    57d8:	c3                   	ret
    57d9:	8d b4 26 00 00 00 00 	lea    0x0(%esi,%eiz,1),%esi

000057e0 <_ZN2ez2iilsERSoDv8_f>:
    57e0:	8d 4c 24 04          	lea    0x4(%esp),%ecx
    57e4:	83 e4 e0             	and    $0xffffffe0,%esp
    57e7:	ff 71 fc             	push   -0x4(%ecx)
    57ea:	55                   	push   %ebp
    57eb:	89 e5                	mov    %esp,%ebp
    57ed:	57                   	push   %edi
    57ee:	56                   	push   %esi
    57ef:	53                   	push   %ebx
    57f0:	51                   	push   %ecx
    57f1:	8d 7d c4             	lea    -0x3c(%ebp),%edi
    57f4:	83 ec 68             	sub    $0x68,%esp
    57f7:	8b 11                	mov    (%ecx),%edx
    57f9:	e8 32 e0 ff ff       	call   3830 <__x86.get_pc_thunk.bx>
    57fe:	81 c3 be 96 00 00    	add    $0x96be,%ebx
    5804:	65 a1 14 00 00 00    	mov    %gs:0x14,%eax
    580a:	89 45 e4             	mov    %eax,-0x1c(%ebp)
    580d:	31 c0                	xor    %eax,%eax
    580f:	89 55 98             	mov    %edx,-0x68(%ebp)
    5812:	c5 fc 29 45 a8       	vmovaps %ymm0,-0x58(%ebp)
    5817:	8d 45 a8             	lea    -0x58(%ebp),%eax
    581a:	8d 8b 7f c1 ff ff    	lea    -0x3e81(%ebx),%ecx
    5820:	8b b3 24 01 00 00    	mov    0x124(%ebx),%esi
    5826:	89 45 9c             	mov    %eax,-0x64(%ebp)
    5829:	89 4d a4             	mov    %ecx,-0x5c(%ebp)
    582c:	c5 f8 77             	vzeroupper
    582f:	8b 16                	mov    (%esi),%edx
    5831:	83 ec 0c             	sub    $0xc,%esp
    5834:	d9 07                	flds   (%edi)
    5836:	8b 4a f4             	mov    -0xc(%edx),%ecx
    5839:	01 f1                	add    %esi,%ecx
    583b:	8b 41 0c             	mov    0xc(%ecx),%eax
    583e:	25 fb fe ff ff       	and    $0xfffffefb,%eax
    5843:	83 c8 04             	or     $0x4,%eax
    5846:	89 41 0c             	mov    %eax,0xc(%ecx)
    5849:	dd 1c 24             	fstpl  (%esp)
    584c:	56                   	push   %esi
    584d:	e8 0e cb ff ff       	call   2360 <_ZNSo9_M_insertIdEERSoT_@plt>
    5852:	83 c4 0c             	add    $0xc,%esp
    5855:	6a 03                	push   $0x3
    5857:	ff 75 a4             	push   -0x5c(%ebp)
    585a:	50                   	push   %eax
    585b:	e8 80 ca ff ff       	call   22e0 <_ZSt16__ostream_insertIcSt11char_traitsIcEERSt13basic_ostreamIT_T0_ES6_PKS3_i@plt>
    5860:	8b 16                	mov    (%esi),%edx
    5862:	d9 47 fc             	flds   -0x4(%edi)
    5865:	8b 4a f4             	mov    -0xc(%edx),%ecx
    5868:	01 f1                	add    %esi,%ecx
    586a:	8b 41 0c             	mov    0xc(%ecx),%eax
    586d:	25 fb fe ff ff       	and    $0xfffffefb,%eax
    5872:	83 c8 04             	or     $0x4,%eax
    5875:	89 41 0c             	mov    %eax,0xc(%ecx)
    5878:	dd 5c 24 04          	fstpl  0x4(%esp)
    587c:	89 34 24             	mov    %esi,(%esp)
    587f:	e8 dc ca ff ff       	call   2360 <_ZNSo9_M_insertIdEERSoT_@plt>
    5884:	83 c4 0c             	add    $0xc,%esp
    5887:	6a 03                	push   $0x3
    5889:	ff 75 a4             	push   -0x5c(%ebp)
    588c:	50                   	push   %eax
    588d:	e8 4e ca ff ff       	call   22e0 <_ZSt16__ostream_insertIcSt11char_traitsIcEERSt13basic_ostreamIT_T0_ES6_PKS3_i@plt>
    5892:	8b 16                	mov    (%esi),%edx
    5894:	d9 47 f8             	flds   -0x8(%edi)
    5897:	8b 4a f4             	mov    -0xc(%edx),%ecx
    589a:	01 f1                	add    %esi,%ecx
    589c:	8b 41 0c             	mov    0xc(%ecx),%eax
    589f:	25 fb fe ff ff       	and    $0xfffffefb,%eax
    58a4:	83 c8 04             	or     $0x4,%eax
    58a7:	89 41 0c             	mov    %eax,0xc(%ecx)
    58aa:	dd 5c 24 04          	fstpl  0x4(%esp)
    58ae:	89 34 24             	mov    %esi,(%esp)
    58b1:	e8 aa ca ff ff       	call   2360 <_ZNSo9_M_insertIdEERSoT_@plt>
    58b6:	83 c4 0c             	add    $0xc,%esp
    58b9:	6a 03                	push   $0x3
    58bb:	ff 75 a4             	push   -0x5c(%ebp)
    58be:	50                   	push   %eax
    58bf:	e8 1c ca ff ff       	call   22e0 <_ZSt16__ostream_insertIcSt11char_traitsIcEERSt13basic_ostreamIT_T0_ES6_PKS3_i@plt>
    58c4:	8b 0e                	mov    (%esi),%ecx
    58c6:	8d 57 f4             	lea    -0xc(%edi),%edx
    58c9:	d9 47 f4             	flds   -0xc(%edi)
    58cc:	89 55 a0             	mov    %edx,-0x60(%ebp)
    58cf:	83 ef 10             	sub    $0x10,%edi
    58d2:	8b 51 f4             	mov    -0xc(%ecx),%edx
    58d5:	01 f2                	add    %esi,%edx
    58d7:	8b 42 0c             	mov    0xc(%edx),%eax
    58da:	25 fb fe ff ff       	and    $0xfffffefb,%eax
    58df:	83 c8 04             	or     $0x4,%eax
    58e2:	89 42 0c             	mov    %eax,0xc(%edx)
    58e5:	dd 5c 24 04          	fstpl  0x4(%esp)
    58e9:	89 34 24             	mov    %esi,(%esp)
    58ec:	e8 6f ca ff ff       	call   2360 <_ZNSo9_M_insertIdEERSoT_@plt>
    58f1:	83 c4 0c             	add    $0xc,%esp
    58f4:	6a 03                	push   $0x3
    58f6:	ff 75 a4             	push   -0x5c(%ebp)
    58f9:	50                   	push   %eax
    58fa:	e8 e1 c9 ff ff       	call   22e0 <_ZSt16__ostream_insertIcSt11char_traitsIcEERSt13basic_ostreamIT_T0_ES6_PKS3_i@plt>
    58ff:	8b 4d a0             	mov    -0x60(%ebp),%ecx
    5902:	83 c4 10             	add    $0x10,%esp
    5905:	39 4d 9c             	cmp    %ecx,-0x64(%ebp)
    5908:	0f 85 21 ff ff ff    	jne    582f <_ZN2ez2iilsERSoDv8_f+0x4f>
    590e:	8b 5d 98             	mov    -0x68(%ebp),%ebx
    5911:	8b 45 e4             	mov    -0x1c(%ebp),%eax
    5914:	65 2b 05 14 00 00 00 	sub    %gs:0x14,%eax
    591b:	75 0e                	jne    592b <_ZN2ez2iilsERSoDv8_f+0x14b>
    591d:	8d 65 f0             	lea    -0x10(%ebp),%esp
    5920:	89 d8                	mov    %ebx,%eax
    5922:	59                   	pop    %ecx
    5923:	5b                   	pop    %ebx
    5924:	5e                   	pop    %esi
    5925:	5f                   	pop    %edi
    5926:	5d                   	pop    %ebp
    5927:	8d 61 fc             	lea    -0x4(%ecx),%esp
    592a:	c3                   	ret
    592b:	e8 70 50 00 00       	call   a9a0 <__stack_chk_fail_local>

00005930 <_ZN2ez2iilsERSoDv4_d>:
    5930:	8d 4c 24 04          	lea    0x4(%esp),%ecx
    5934:	83 e4 e0             	and    $0xffffffe0,%esp
    5937:	ff 71 fc             	push   -0x4(%ecx)
    593a:	55                   	push   %ebp
    593b:	89 e5                	mov    %esp,%ebp
    593d:	57                   	push   %edi
    593e:	56                   	push   %esi
    593f:	53                   	push   %ebx
    5940:	51                   	push   %ecx
    5941:	8d 55 88             	lea    -0x78(%ebp),%edx
    5944:	8d 75 a8             	lea    -0x58(%ebp),%esi
    5947:	83 ec 68             	sub    $0x68,%esp
    594a:	8b 01                	mov    (%ecx),%eax
    594c:	e8 df de ff ff       	call   3830 <__x86.get_pc_thunk.bx>
    5951:	81 c3 6b 95 00 00    	add    $0x956b,%ebx
    5957:	89 45 9c             	mov    %eax,-0x64(%ebp)
    595a:	65 a1 14 00 00 00    	mov    %gs:0x14,%eax
    5960:	89 45 e4             	mov    %eax,-0x1c(%ebp)
    5963:	31 c0                	xor    %eax,%eax
    5965:	89 55 a4             	mov    %edx,-0x5c(%ebp)
    5968:	c5 fd 29 45 a8       	vmovapd %ymm0,-0x58(%ebp)
    596d:	8d 8b 7f c1 ff ff    	lea    -0x3e81(%ebx),%ecx
    5973:	8b bb 24 01 00 00    	mov    0x124(%ebx),%edi
    5979:	89 4d a0             	mov    %ecx,-0x60(%ebp)
    597c:	c5 f8 77             	vzeroupper
    597f:	8b 07                	mov    (%edi),%eax
    5981:	83 ec 04             	sub    $0x4,%esp
    5984:	83 ee 08             	sub    $0x8,%esi
    5987:	8b 50 f4             	mov    -0xc(%eax),%edx
    598a:	01 fa                	add    %edi,%edx
    598c:	8b 4a 0c             	mov    0xc(%edx),%ecx
    598f:	81 e1 fb fe ff ff    	and    $0xfffffefb,%ecx
    5995:	83 c9 04             	or     $0x4,%ecx
    5998:	89 4a 0c             	mov    %ecx,0xc(%edx)
    599b:	ff 76 24             	push   0x24(%esi)
    599e:	ff 76 20             	push   0x20(%esi)
    59a1:	57                   	push   %edi
    59a2:	e8 b9 c9 ff ff       	call   2360 <_ZNSo9_M_insertIdEERSoT_@plt>
    59a7:	83 c4 0c             	add    $0xc,%esp
    59aa:	6a 03                	push   $0x3
    59ac:	ff 75 a0             	push   -0x60(%ebp)
    59af:	50                   	push   %eax
    59b0:	e8 2b c9 ff ff       	call   22e0 <_ZSt16__ostream_insertIcSt11char_traitsIcEERSt13basic_ostreamIT_T0_ES6_PKS3_i@plt>
    59b5:	83 c4 10             	add    $0x10,%esp
    59b8:	39 75 a4             	cmp    %esi,-0x5c(%ebp)
    59bb:	75 c2                	jne    597f <_ZN2ez2iilsERSoDv4_d+0x4f>
    59bd:	8b 45 e4             	mov    -0x1c(%ebp),%eax
    59c0:	65 2b 05 14 00 00 00 	sub    %gs:0x14,%eax
    59c7:	75 0f                	jne    59d8 <_ZN2ez2iilsERSoDv4_d+0xa8>
    59c9:	8b 45 9c             	mov    -0x64(%ebp),%eax
    59cc:	8d 65 f0             	lea    -0x10(%ebp),%esp
    59cf:	59                   	pop    %ecx
    59d0:	5b                   	pop    %ebx
    59d1:	5e                   	pop    %esi
    59d2:	5f                   	pop    %edi
    59d3:	5d                   	pop    %ebp
    59d4:	8d 61 fc             	lea    -0x4(%ecx),%esp
    59d7:	c3                   	ret
    59d8:	e8 c3 4f 00 00       	call   a9a0 <__stack_chk_fail_local>

000059dd <__x86.get_pc_thunk.ax>:
    59dd:	8b 04 24             	mov    (%esp),%eax
    59e0:	c3                   	ret
    59e1:	66 90                	xchg   %ax,%ax
    59e3:	66 90                	xchg   %ax,%ax
    59e5:	66 90                	xchg   %ax,%ax
    59e7:	66 90                	xchg   %ax,%ax
    59e9:	66 90                	xchg   %ax,%ax
    59eb:	66 90                	xchg   %ax,%ax
    59ed:	66 90                	xchg   %ax,%ax
    59ef:	90                   	nop

000059f0 <_Z9draw_hzlni>:
    59f0:	55                   	push   %ebp
    59f1:	57                   	push   %edi
    59f2:	56                   	push   %esi
    59f3:	53                   	push   %ebx
    59f4:	83 ec 0c             	sub    $0xc,%esp
    59f7:	8b 44 24 20          	mov    0x20(%esp),%eax
    59fb:	e8 30 de ff ff       	call   3830 <__x86.get_pc_thunk.bx>
    5a00:	81 c3 bc 94 00 00    	add    $0x94bc,%ebx
    5a06:	85 c0                	test   %eax,%eax
    5a08:	0f 8e 53 01 00 00    	jle    5b61 <_Z9draw_hzlni+0x171>
    5a0e:	8b 54 24 20          	mov    0x20(%esp),%edx
    5a12:	31 ed                	xor    %ebp,%ebp
    5a14:	8b bb 24 01 00 00    	mov    0x124(%ebx),%edi
    5a1a:	8d 35 d8 02 00 00    	lea    0x2d8,%esi
    5a20:	83 e2 07             	and    $0x7,%edx
    5a23:	0f 84 a8 00 00 00    	je     5ad1 <_Z9draw_hzlni+0xe1>
    5a29:	83 fa 01             	cmp    $0x1,%edx
    5a2c:	0f 84 81 00 00 00    	je     5ab3 <_Z9draw_hzlni+0xc3>
    5a32:	83 fa 02             	cmp    $0x2,%edx
    5a35:	74 68                	je     5a9f <_Z9draw_hzlni+0xaf>
    5a37:	83 fa 03             	cmp    $0x3,%edx
    5a3a:	74 4f                	je     5a8b <_Z9draw_hzlni+0x9b>
    5a3c:	83 fa 04             	cmp    $0x4,%edx
    5a3f:	74 36                	je     5a77 <_Z9draw_hzlni+0x87>
    5a41:	83 fa 05             	cmp    $0x5,%edx
    5a44:	74 1d                	je     5a63 <_Z9draw_hzlni+0x73>
    5a46:	83 fa 06             	cmp    $0x6,%edx
    5a49:	0f 85 21 01 00 00    	jne    5b70 <_Z9draw_hzlni+0x180>
    5a4f:	83 ec 04             	sub    $0x4,%esp
    5a52:	ff 74 1e 04          	push   0x4(%esi,%ebx,1)
    5a56:	ff 34 1e             	push   (%esi,%ebx,1)
    5a59:	45                   	inc    %ebp
    5a5a:	57                   	push   %edi
    5a5b:	e8 80 c8 ff ff       	call   22e0 <_ZSt16__ostream_insertIcSt11char_traitsIcEERSt13basic_ostreamIT_T0_ES6_PKS3_i@plt>
    5a60:	83 c4 10             	add    $0x10,%esp
    5a63:	83 ec 04             	sub    $0x4,%esp
    5a66:	ff 74 1e 04          	push   0x4(%esi,%ebx,1)
    5a6a:	ff 34 1e             	push   (%esi,%ebx,1)
    5a6d:	45                   	inc    %ebp
    5a6e:	57                   	push   %edi
    5a6f:	e8 6c c8 ff ff       	call   22e0 <_ZSt16__ostream_insertIcSt11char_traitsIcEERSt13basic_ostreamIT_T0_ES6_PKS3_i@plt>
    5a74:	83 c4 10             	add    $0x10,%esp
    5a77:	83 ec 04             	sub    $0x4,%esp
    5a7a:	ff 74 1e 04          	push   0x4(%esi,%ebx,1)
    5a7e:	ff 34 1e             	push   (%esi,%ebx,1)
    5a81:	45                   	inc    %ebp
    5a82:	57                   	push   %edi
    5a83:	e8 58 c8 ff ff       	call   22e0 <_ZSt16__ostream_insertIcSt11char_traitsIcEERSt13basic_ostreamIT_T0_ES6_PKS3_i@plt>
    5a88:	83 c4 10             	add    $0x10,%esp
    5a8b:	83 ec 04             	sub    $0x4,%esp
    5a8e:	ff 74 1e 04          	push   0x4(%esi,%ebx,1)
    5a92:	ff 34 1e             	push   (%esi,%ebx,1)
    5a95:	45                   	inc    %ebp
    5a96:	57                   	push   %edi
    5a97:	e8 44 c8 ff ff       	call   22e0 <_ZSt16__ostream_insertIcSt11char_traitsIcEERSt13basic_ostreamIT_T0_ES6_PKS3_i@plt>
    5a9c:	83 c4 10             	add    $0x10,%esp
    5a9f:	83 ec 04             	sub    $0x4,%esp
    5aa2:	ff 74 1e 04          	push   0x4(%esi,%ebx,1)
    5aa6:	ff 34 1e             	push   (%esi,%ebx,1)
